(dp0
S'pr'
p1
S'r2.0'
p2
sS'packagelist'
p3
(lp4
S'qtbase-fonts'
p5
aS'qtbase-fonts-ttf-vera'
p6
aS'qtbase-fonts-ttf-dejavu'
p7
aS'qtbase-fonts-pfa'
p8
aS'qtbase-fonts-pfb'
p9
aS'qtbase-fonts-qpf'
p10
aS'qtbase-qmlplugins-dbg'
p11
aS'qtbase-tools-dbg'
p12
aS'qtbase-plugins-dbg'
p13
aS'qtbase-qmlplugins'
p14
aS'qtbase-tools'
p15
aS'qtbase-plugins'
p16
aS'qtbase-mkspecs'
p17
aS'qtbase-examples-dev'
p18
aS'qtbase-examples-staticdev'
p19
aS'qtbase-examples-dbg'
p20
aS'qtbase-examples'
p21
aS'qtbase-dbg'
p22
aS'qtbase-staticdev'
p23
aS'qtbase-dev'
p24
aS'qtbase-doc'
p25
aS'qtbase-locale'
p26
aS'qtbase'
p27
asS'pv'
p28
S'5.0.2'
p29
sS'depends'
p30
S'freetype glib-2.0 icu jpeg libpng openssl qtbase-native qtbase-native udev virtual/arm-webos-linux-gnueabi-compilerlibs virtual/arm-webos-linux-gnueabi-gcc virtual/egl virtual/libc virtual/libgles2 zlib'
p31
sS'src_uri'
p32
S'      http://releases.qt-project.org/qt5/5.0.2/submodules/qtbase-opensource-src-5.0.2.tar.xz       file://0001-Add-linux-oe-g-platform.patch     file://0002-qlibraryinfo-allow-to-set-qt.conf-from-the-outside-u.patch     file://0003-Add-external-hostbindir-option.patch     file://0004-qt_functions-temporary-remove-isEmpty-check.patch     file://0005-qmake-is-already-built-in-qtbase-native.patch     file://0006-Allow-building-a-separate-qmake-for-the-target.patch     file://0007-configureapp-Prefix-default-LIBDIRS-and-INCDIRS-with.patch     file://0008-qt_module-Fix-pkgconfig-replacement.patch     file://0009-qt_module-Fix-paths-in-.prl-files.patch     file://0010-wayland-scanner-disable-silent-rules.patch     file://0011-configure-don-t-export-SYSTEM_VARIABLES-to-.qmake.va.patch     file://0012-configure.prf-Allow-to-add-extra-arguments-to-make.patch     file://0013-Disable-mkv8snapshot.patch     file://0014-enables-tslib-device-to-be-read-from-env-variable.patch     file://0015-qtbase-allow-build-of-examples.patch     file://0018-QOpenGLPaintDevice-sub-area-support.patch     file://0019-Fix-FBO-restoring-in-QOpenGLTextureGlyphCache.patch     file://0020-Use-BGRA-extension-in-bindTexture.patch       file://0016-Allow-tslib-to-be-specified-at-configure-time.patch     file://0017-Rename-qAbs-Function-for-timeval.patch '
p33
sS'pe'
p34
S'0'
p35
sS'bbfile'
p36
S'/home/jenkins/webos-ports/workspace/webos-ports/meta-qt5/recipes-qt/qt5/qtbase_5.0.2.bb'
p37
sS'srcrev'
p38
(lp39
sS'pn'
p40
S'qtbase'
p41
s.(dp0
S'pr'
p1
S'r0'
p2
sS'packagelist'
p3
(lp4
S'luna-service2-dbg'
p5
aS'luna-service2-staticdev'
p6
aS'luna-service2-dev'
p7
aS'luna-service2-doc'
p8
aS'luna-service2-locale'
p9
aS'luna-service2'
p10
asS'pv'
p11
S'3.3.0-150'
p12
sS'depends'
p13
S'autoconf-native automake-native cjson cmake-modules-webos-native cmake-native glib-2.0 gnu-config-native libtool-cross libtool-native pkgconfig-native pmloglib virtual/arm-webos-linux-gnueabi-compilerlibs virtual/arm-webos-linux-gnueabi-gcc virtual/libc'
p14
sS'src_uri'
p15
S'git://github.com/openwebos/luna-service2'
p16
sS'pe'
p17
S'0'
p18
sS'bbfile'
p19
S'/home/jenkins/webos-ports/workspace/webos-ports/meta-webos-ports/recipes-webos/luna-service2/luna-service2.bb'
p20
sS'srcrev'
p21
(lp22
S'dbe4ae6ee6ec907ca7cfbc4966587476cb657baf'
p23
asS'pn'
p24
S'luna-service2'
p25
s.(dp0
S'pr'
p1
S'r0'
p2
sS'packagelist'
p3
(lp4
S'pmloglib-dbg'
p5
aS'pmloglib-staticdev'
p6
aS'pmloglib-dev'
p7
aS'pmloglib-doc'
p8
aS'pmloglib-locale'
p9
aS'pmloglib'
p10
asS'pv'
p11
S'3.0.0-30'
p12
sS'depends'
p13
S'autoconf-native automake-native cmake-modules-webos-native cmake-native glib-2.0 gnu-config-native libpbnjson libtool-cross libtool-native pkgconfig-native virtual/arm-webos-linux-gnueabi-compilerlibs virtual/arm-webos-linux-gnueabi-gcc virtual/libc'
p14
sS'src_uri'
p15
S'git://github.com/openwebos/pmloglib'
p16
sS'pe'
p17
S'0'
p18
sS'bbfile'
p19
S'/home/jenkins/webos-ports/workspace/webos-ports/meta-webos-ports/recipes-webos/pmloglib/pmloglib.bb'
p20
sS'srcrev'
p21
(lp22
S'9ddcaf8601403f9fb048de4db3f7eca3bf506577'
p23
asS'pn'
p24
S'pmloglib'
p25
s.(dp0
S'pr'
p1
S'r0.0'
p2
sS'packagelist'
p3
(lp4
S'qtxmlpatterns-qmlplugins-dbg'
p5
aS'qtxmlpatterns-tools-dbg'
p6
aS'qtxmlpatterns-plugins-dbg'
p7
aS'qtxmlpatterns-qmlplugins'
p8
aS'qtxmlpatterns-tools'
p9
aS'qtxmlpatterns-plugins'
p10
aS'qtxmlpatterns-mkspecs'
p11
aS'qtxmlpatterns-examples-dev'
p12
aS'qtxmlpatterns-examples-staticdev'
p13
aS'qtxmlpatterns-examples-dbg'
p14
aS'qtxmlpatterns-examples'
p15
aS'qtxmlpatterns-dbg'
p16
aS'qtxmlpatterns-staticdev'
p17
aS'qtxmlpatterns-dev'
p18
aS'qtxmlpatterns-doc'
p19
aS'qtxmlpatterns-locale'
p20
aS'qtxmlpatterns'
p21
asS'pv'
p22
S'5.0.2'
p23
sS'depends'
p24
S'qtbase qtbase-native virtual/arm-webos-linux-gnueabi-compilerlibs virtual/arm-webos-linux-gnueabi-gcc virtual/libc'
p25
sS'src_uri'
p26
S'      http://releases.qt-project.org/qt5/5.0.2/submodules/qtxmlpatterns-opensource-src-5.0.2.tar.xz '
p27
sS'pe'
p28
S'0'
p29
sS'bbfile'
p30
S'/home/jenkins/webos-ports/workspace/webos-ports/meta-qt5/recipes-qt/qt5/qtxmlpatterns_5.0.2.bb'
p31
sS'srcrev'
p32
(lp33
sS'pn'
p34
S'qtxmlpatterns'
p35
s.(dp0
S'pr'
p1
S'r0'
p2
sS'packagelist'
p3
(lp4
S'libpbnjson-dbg'
p5
aS'libpbnjson-staticdev'
p6
aS'libpbnjson-dev'
p7
aS'libpbnjson-doc'
p8
aS'libpbnjson-locale'
p9
aS'libpbnjson'
p10
asS'pv'
p11
S'1.3.0-13'
p12
sS'depends'
p13
S'autoconf-native automake-native cmake-modules-webos-native cmake-native gnu-config-native libtool-cross libtool-native pkgconfig-native virtual/arm-webos-linux-gnueabi-compilerlibs virtual/arm-webos-linux-gnueabi-gcc virtual/libc yajl'
p14
sS'src_uri'
p15
S'git://github.com/openwebos/libpbnjson'
p16
sS'pe'
p17
S'0'
p18
sS'bbfile'
p19
S'/home/jenkins/webos-ports/workspace/webos-ports/meta-webos-ports/recipes-webos/libpbnjson/libpbnjson.bb'
p20
sS'srcrev'
p21
(lp22
S'42c1559c878d1c4758794c86415739bcf7e4b17e'
p23
asS'pn'
p24
S'libpbnjson'
p25
s.(dp0
S'pr'
p1
S'r0.0'
p2
sS'packagelist'
p3
(lp4
S'qtsvg-qmlplugins-dbg'
p5
aS'qtsvg-tools-dbg'
p6
aS'qtsvg-plugins-dbg'
p7
aS'qtsvg-qmlplugins'
p8
aS'qtsvg-tools'
p9
aS'qtsvg-plugins'
p10
aS'qtsvg-mkspecs'
p11
aS'qtsvg-examples-dev'
p12
aS'qtsvg-examples-staticdev'
p13
aS'qtsvg-examples-dbg'
p14
aS'qtsvg-examples'
p15
aS'qtsvg-dbg'
p16
aS'qtsvg-staticdev'
p17
aS'qtsvg-dev'
p18
aS'qtsvg-doc'
p19
aS'qtsvg-locale'
p20
aS'qtsvg'
p21
asS'pv'
p22
S'5.0.2'
p23
sS'depends'
p24
S'qtbase qtbase-native virtual/arm-webos-linux-gnueabi-compilerlibs virtual/arm-webos-linux-gnueabi-gcc virtual/libc'
p25
sS'src_uri'
p26
S'      http://releases.qt-project.org/qt5/5.0.2/submodules/qtsvg-opensource-src-5.0.2.tar.xz '
p27
sS'pe'
p28
S'0'
p29
sS'bbfile'
p30
S'/home/jenkins/webos-ports/workspace/webos-ports/meta-qt5/recipes-qt/qt5/qtsvg_5.0.2.bb'
p31
sS'srcrev'
p32
(lp33
sS'pn'
p34
S'qtsvg'
p35
s.(dp0
S'pr'
p1
S'r0.0'
p2
sS'packagelist'
p3
(lp4
S'qtjsbackend-qmlplugins-dbg'
p5
aS'qtjsbackend-tools-dbg'
p6
aS'qtjsbackend-plugins-dbg'
p7
aS'qtjsbackend-qmlplugins'
p8
aS'qtjsbackend-tools'
p9
aS'qtjsbackend-plugins'
p10
aS'qtjsbackend-mkspecs'
p11
aS'qtjsbackend-examples-dev'
p12
aS'qtjsbackend-examples-staticdev'
p13
aS'qtjsbackend-examples-dbg'
p14
aS'qtjsbackend-examples'
p15
aS'qtjsbackend-dbg'
p16
aS'qtjsbackend-staticdev'
p17
aS'qtjsbackend-dev'
p18
aS'qtjsbackend-doc'
p19
aS'qtjsbackend-locale'
p20
aS'qtjsbackend'
p21
asS'pv'
p22
S'5.0.2'
p23
sS'depends'
p24
S'qtbase qtbase-native qtjsbackend-native virtual/arm-webos-linux-gnueabi-compilerlibs virtual/arm-webos-linux-gnueabi-gcc virtual/libc'
p25
sS'src_uri'
p26
S'      http://releases.qt-project.org/qt5/5.0.2/submodules/qtjsbackend-opensource-src-5.0.2.tar.xz       file://0002-v8.pro-respect-external-host-bindir-when-set.patch       file://0003-V8-Cleanup-hardfp-ABI-detection.-This-work-was-trigg.patch '
p27
sS'pe'
p28
S'0'
p29
sS'bbfile'
p30
S'/home/jenkins/webos-ports/workspace/webos-ports/meta-qt5/recipes-qt/qt5/qtjsbackend_5.0.2.bb'
p31
sS'srcrev'
p32
(lp33
sS'pn'
p34
S'qtjsbackend'
p35
s.(dp0
S'pr'
p1
S'r0.0'
p2
sS'packagelist'
p3
(lp4
S'qtdeclarative-qmlplugins-dbg'
p5
aS'qtdeclarative-tools-dbg'
p6
aS'qtdeclarative-plugins-dbg'
p7
aS'qtdeclarative-qmlplugins'
p8
aS'qtdeclarative-tools'
p9
aS'qtdeclarative-plugins'
p10
aS'qtdeclarative-mkspecs'
p11
aS'qtdeclarative-examples-dev'
p12
aS'qtdeclarative-examples-staticdev'
p13
aS'qtdeclarative-examples-dbg'
p14
aS'qtdeclarative-examples'
p15
aS'qtdeclarative-dbg'
p16
aS'qtdeclarative-staticdev'
p17
aS'qtdeclarative-dev'
p18
aS'qtdeclarative-doc'
p19
aS'qtdeclarative-locale'
p20
aS'qtdeclarative'
p21
asS'pv'
p22
S'5.0.2'
p23
sS'depends'
p24
S'qtbase-native qtjsbackend qtsvg qtxmlpatterns virtual/arm-webos-linux-gnueabi-compilerlibs virtual/arm-webos-linux-gnueabi-gcc virtual/libc'
p25
sS'src_uri'
p26
S'      http://releases.qt-project.org/qt5/5.0.2/submodules/qtdeclarative-opensource-src-5.0.2.tar.xz       file://0001-qmltestexample-fix-link.patch     file://0002-Fix-displacement-transition-bug-for-horizontal-case.patch     file://0003-Fix-wrong-calculation-of-viewPort-for-transitions.patch     file://0004-Fix-null-pointer-access-in-QQuickVisualDataModelPriv.patch     file://0005-Avoid-swizzling-on-OpenGL-ES-when-possible.patch '
p27
sS'pe'
p28
S'0'
p29
sS'bbfile'
p30
S'/home/jenkins/webos-ports/workspace/webos-ports/meta-qt5/recipes-qt/qt5/qtdeclarative_5.0.2.bb'
p31
sS'srcrev'
p32
(lp33
sS'pn'
p34
S'qtdeclarative'
p35
s.(dp0
S'pr'
p1
S'r0'
p2
sS'packagelist'
p3
(lp4
S'pmstatemachineengine-dbg'
p5
aS'pmstatemachineengine-staticdev'
p6
aS'pmstatemachineengine-dev'
p7
aS'pmstatemachineengine-doc'
p8
aS'pmstatemachineengine-locale'
p9
aS'pmstatemachineengine'
p10
asS'pv'
p11
S'2.0.0-13'
p12
sS'depends'
p13
S'autoconf-native automake-native cmake-modules-webos-native cmake-native gnu-config-native libtool-cross libtool-native pkgconfig-native pmloglib virtual/arm-webos-linux-gnueabi-compilerlibs virtual/arm-webos-linux-gnueabi-gcc virtual/libc'
p14
sS'src_uri'
p15
S'git://github.com/openwebos/pmstatemachineengine'
p16
sS'pe'
p17
S'0'
p18
sS'bbfile'
p19
S'/home/jenkins/webos-ports/workspace/webos-ports/meta-webos-ports/recipes-webos/pmstatemachineengine/pmstatemachineengine.bb'
p20
sS'srcrev'
p21
(lp22
S'88e0b6129e6e7ee939e3622fd84537694df04bde'
p23
asS'pn'
p24
S'pmstatemachineengine'
p25
s.(dp0
S'pr'
p1
S'r0'
p2
sS'packagelist'
p3
(lp4
S'db8-dbg'
p5
aS'db8-staticdev'
p6
aS'db8-dev'
p7
aS'db8-doc'
p8
aS'db8-locale'
p9
aS'db8'
p10
asS'pv'
p11
S'2.0.0-72'
p12
sS'depends'
p13
S'autoconf-native automake-native cmake-modules-webos-native cmake-native curl glib-2.0 gnu-config-native icu jemalloc leveldb libtool-cross libtool-native luna-service2 pkgconfig-native pmloglib virtual/arm-webos-linux-gnueabi-compilerlibs virtual/arm-webos-linux-gnueabi-gcc virtual/libc'
p14
sS'src_uri'
p15
S'git://github.com/openwebos/db8'
p16
sS'pe'
p17
S'0'
p18
sS'bbfile'
p19
S'/home/jenkins/webos-ports/workspace/webos-ports/meta-webos-ports/recipes-webos/db8/db8.bb'
p20
sS'srcrev'
p21
(lp22
S'4d63046617ea9a1b3167c47907cd387ed05ce2df'
p23
asS'pn'
p24
S'db8'
p25
s.(dp0
S'pr'
p1
S'r0'
p2
sS'packagelist'
p3
(lp4
S'libpalmsocket-dbg'
p5
aS'libpalmsocket-staticdev'
p6
aS'libpalmsocket-dev'
p7
aS'libpalmsocket-doc'
p8
aS'libpalmsocket-locale'
p9
aS'libpalmsocket'
p10
asS'pv'
p11
S'2.0.0-30'
p12
sS'depends'
p13
S'autoconf-native automake-native c-ares cmake-modules-webos-native cmake-native glib-2.0 gnu-config-native libtool-cross libtool-native openssl pkgconfig-native pmloglib pmstatemachineengine virtual/arm-webos-linux-gnueabi-compilerlibs virtual/arm-webos-linux-gnueabi-gcc virtual/libc'
p14
sS'src_uri'
p15
S'git://github.com/openwebos/libpalmsocket'
p16
sS'pe'
p17
S'0'
p18
sS'bbfile'
p19
S'/home/jenkins/webos-ports/workspace/webos-ports/meta-webos-ports/recipes-webos/libpalmsocket/libpalmsocket.bb'
p20
sS'srcrev'
p21
(lp22
S'd2c9c3ed769552c4852d7a8f962408720af90cf4'
p23
asS'pn'
p24
S'libpalmsocket'
p25
s.(dp0
S'pr'
p1
S'r0'
p2
sS'packagelist'
p3
(lp4
S'luna-prefs-dbg'
p5
aS'luna-prefs-staticdev'
p6
aS'luna-prefs-dev'
p7
aS'luna-prefs-doc'
p8
aS'luna-prefs-locale'
p9
aS'luna-prefs'
p10
asS'pv'
p11
S'2.0.0-1.01'
p12
sS'depends'
p13
S'autoconf-native automake-native cjson cmake-modules-webos-native cmake-native glib-2.0 gnu-config-native libtool-cross libtool-native luna-service2 pkgconfig-native sqlite3 virtual/arm-webos-linux-gnueabi-compilerlibs virtual/arm-webos-linux-gnueabi-gcc virtual/libc'
p14
sS'src_uri'
p15
S'git://github.com/openwebos/luna-prefs'
p16
sS'pe'
p17
S'0'
p18
sS'bbfile'
p19
S'/home/jenkins/webos-ports/workspace/webos-ports/meta-webos-ports/recipes-webos/luna-prefs/luna-prefs.bb'
p20
sS'srcrev'
p21
(lp22
S'1b8182fe4373d29fa728345825c8988db138b23b'
p23
asS'pn'
p24
S'luna-prefs'
p25
s.(dp0
S'pr'
p1
S'r0.0'
p2
sS'packagelist'
p3
(lp4
S'qtjsondb-qmlplugins-dbg'
p5
aS'qtjsondb-tools-dbg'
p6
aS'qtjsondb-plugins-dbg'
p7
aS'qtjsondb-qmlplugins'
p8
aS'qtjsondb-tools'
p9
aS'qtjsondb-plugins'
p10
aS'qtjsondb-mkspecs'
p11
aS'qtjsondb-examples-dev'
p12
aS'qtjsondb-examples-staticdev'
p13
aS'qtjsondb-examples-dbg'
p14
aS'qtjsondb-examples'
p15
aS'qtjsondb-dbg'
p16
aS'qtjsondb-staticdev'
p17
aS'qtjsondb-dev'
p18
aS'qtjsondb-doc'
p19
aS'qtjsondb-locale'
p20
aS'qtjsondb'
p21
asS'pv'
p22
S'4.999+5.0.0-beta1+gitAUTOINC+c7c1e61bb5beddc3f4502548fd9ee498f1534e67'
p23
sS'depends'
p24
S'icu qtbase-native qtdeclarative virtual/arm-webos-linux-gnueabi-compilerlibs virtual/arm-webos-linux-gnueabi-gcc virtual/libc'
p25
sS'src_uri'
p26
S'      git://qt.gitorious.org/qt/qtjsondb.git;branch=master '
p27
sS'pe'
p28
S'0'
p29
sS'bbfile'
p30
S'/home/jenkins/webos-ports/workspace/webos-ports/meta-qt5/recipes-qt/qt5/qtjsondb_git.bb'
p31
sS'srcrev'
p32
(lp33
S'c7c1e61bb5beddc3f4502548fd9ee498f1534e67'
p34
asS'pn'
p35
S'qtjsondb'
p36
s.(dp0
S'pr'
p1
S'r1.0'
p2
sS'packagelist'
p3
(lp4
S'qt3d-qmlplugins-dbg'
p5
aS'qt3d-tools-dbg'
p6
aS'qt3d-plugins-dbg'
p7
aS'qt3d-qmlplugins'
p8
aS'qt3d-tools'
p9
aS'qt3d-plugins'
p10
aS'qt3d-mkspecs'
p11
aS'qt3d-examples-dev'
p12
aS'qt3d-examples-staticdev'
p13
aS'qt3d-examples-dbg'
p14
aS'qt3d-examples'
p15
aS'qt3d-dbg'
p16
aS'qt3d-staticdev'
p17
aS'qt3d-dev'
p18
aS'qt3d-doc'
p19
aS'qt3d-locale'
p20
aS'qt3d'
p21
asS'pv'
p22
S'4.999+5.0.0-beta1+gitAUTOINC+0158ce783a61bac3e4f4ff619b0601daf9174ce6'
p23
sS'depends'
p24
S'qtbase-native qtdeclarative virtual/arm-webos-linux-gnueabi-compilerlibs virtual/arm-webos-linux-gnueabi-gcc virtual/libc'
p25
sS'src_uri'
p26
S'      git://qt.gitorious.org/qt/qt3d.git;branch=master '
p27
sS'pe'
p28
S'0'
p29
sS'bbfile'
p30
S'/home/jenkins/webos-ports/workspace/webos-ports/meta-qt5/recipes-qt/qt5/qt3d_git.bb'
p31
sS'srcrev'
p32
(lp33
S'0158ce783a61bac3e4f4ff619b0601daf9174ce6'
p34
asS'pn'
p35
S'qt3d'
p36
s.(dp0
S'pr'
p1
S'r0'
p2
sS'packagelist'
p3
(lp4
S'serviceinstaller-dbg'
p5
aS'serviceinstaller-staticdev'
p6
aS'serviceinstaller-dev'
p7
aS'serviceinstaller-doc'
p8
aS'serviceinstaller-locale'
p9
aS'serviceinstaller'
p10
asS'pv'
p11
S'2.0.0-1.01'
p12
sS'depends'
p13
S'autoconf-native automake-native cmake-modules-webos-native cmake-native glib-2.0 gnu-config-native libpbnjson librolegen libtool-cross libtool-native luna-service2 virtual/arm-webos-linux-gnueabi-compilerlibs virtual/arm-webos-linux-gnueabi-gcc virtual/libc'
p14
sS'src_uri'
p15
S'git://github.com/openwebos/serviceinstaller file://0001-When-running-install-make-target-install-header-file.patch'
p16
sS'pe'
p17
S'0'
p18
sS'bbfile'
p19
S'/home/jenkins/webos-ports/workspace/webos-ports/meta-webos-ports/recipes-webos/serviceinstaller/serviceinstaller.bb'
p20
sS'srcrev'
p21
(lp22
S'82d8ae7e930f5f72935cb807b773be52ca817a92'
p23
asS'pn'
p24
S'serviceinstaller'
p25
s.(dp0
S'pr'
p1
S'r0.0'
p2
sS'packagelist'
p3
(lp4
S'qtsensors-qmlplugins-dbg'
p5
aS'qtsensors-tools-dbg'
p6
aS'qtsensors-plugins-dbg'
p7
aS'qtsensors-qmlplugins'
p8
aS'qtsensors-tools'
p9
aS'qtsensors-plugins'
p10
aS'qtsensors-mkspecs'
p11
aS'qtsensors-examples-dev'
p12
aS'qtsensors-examples-staticdev'
p13
aS'qtsensors-examples-dbg'
p14
aS'qtsensors-examples'
p15
aS'qtsensors-dbg'
p16
aS'qtsensors-staticdev'
p17
aS'qtsensors-dev'
p18
aS'qtsensors-doc'
p19
aS'qtsensors-locale'
p20
aS'qtsensors'
p21
asS'pv'
p22
S'4.999+5.0.0-beta1+gitAUTOINC+a8bb2b1720372b79b1e7c03692252a3d6f0a7c0f'
p23
sS'depends'
p24
S'qtbase qtbase-native qtdeclarative virtual/arm-webos-linux-gnueabi-compilerlibs virtual/arm-webos-linux-gnueabi-gcc virtual/libc'
p25
sS'src_uri'
p26
S'      git://qt.gitorious.org/qt/qtsensors.git;branch=stable '
p27
sS'pe'
p28
S'0'
p29
sS'bbfile'
p30
S'/home/jenkins/webos-ports/workspace/webos-ports/meta-qt5/recipes-qt/qt5/qtsensors_git.bb'
p31
sS'srcrev'
p32
(lp33
S'a8bb2b1720372b79b1e7c03692252a3d6f0a7c0f'
p34
asS'pn'
p35
S'qtsensors'
p36
s.(dp0
S'pr'
p1
S'r0.0'
p2
sS'packagelist'
p3
(lp4
S'qtlocation-qmlplugins-dbg'
p5
aS'qtlocation-tools-dbg'
p6
aS'qtlocation-plugins-dbg'
p7
aS'qtlocation-qmlplugins'
p8
aS'qtlocation-tools'
p9
aS'qtlocation-plugins'
p10
aS'qtlocation-mkspecs'
p11
aS'qtlocation-examples-dev'
p12
aS'qtlocation-examples-staticdev'
p13
aS'qtlocation-examples-dbg'
p14
aS'qtlocation-examples'
p15
aS'qtlocation-dbg'
p16
aS'qtlocation-staticdev'
p17
aS'qtlocation-dev'
p18
aS'qtlocation-doc'
p19
aS'qtlocation-locale'
p20
aS'qtlocation'
p21
asS'pv'
p22
S'4.999+5.0.0-beta1+gitAUTOINC+f28408346243cf090326f4738fd838219c21e00f'
p23
sS'depends'
p24
S'qt3d qtbase qtbase-native qtjsondb virtual/arm-webos-linux-gnueabi-compilerlibs virtual/arm-webos-linux-gnueabi-gcc virtual/libc'
p25
sS'src_uri'
p26
S'      git://qt.gitorious.org/qt/qtlocation.git;branch=master '
p27
sS'pe'
p28
S'0'
p29
sS'bbfile'
p30
S'/home/jenkins/webos-ports/workspace/webos-ports/meta-qt5/recipes-qt/qt5/qtlocation_git.bb'
p31
sS'srcrev'
p32
(lp33
S'f28408346243cf090326f4738fd838219c21e00f'
p34
asS'pn'
p35
S'qtlocation'
p36
s.(dp0
S'pr'
p1
S'r0'
p2
sS'packagelist'
p3
(lp4
S'webkit-webos-dbg'
p5
aS'webkit-webos-staticdev'
p6
aS'webkit-webos-dev'
p7
aS'webkit-webos-doc'
p8
aS'webkit-webos-locale'
p9
aS'webkit-webos'
p10
asS'pv'
p11
S'1.3-0.54'
p12
sS'depends'
p13
S'gperf-native luna-service2 pkgconfig-native qmake-webos-native qt4-webos sqlite3 virtual/arm-webos-linux-gnueabi-compilerlibs virtual/arm-webos-linux-gnueabi-gcc virtual/libc'
p14
sS'src_uri'
p15
S'https://github.com/downloads/isis-project/WebKit/WebKit_0.54s.zip   file://0001-Build-fix-with-newer-bison-2.6.patch file://remove-empty-soname-arg.patch file://fullscreenvideowidget-remove-cursor-use.patch'
p16
sS'pe'
p17
S'0'
p18
sS'bbfile'
p19
S'/home/jenkins/webos-ports/workspace/webos-ports/meta-webos-ports/recipes-webos/webkit/webkit-webos.bb'
p20
sS'srcrev'
p21
(lp22
sS'pn'
p23
S'webkit-webos'
p24
s.(dp0
S'pr'
p1
S'r0'
p2
sS'packagelist'
p3
(lp4
S'mojomail-common-dbg'
p5
aS'mojomail-common-staticdev'
p6
aS'mojomail-common-dev'
p7
aS'mojomail-common-doc'
p8
aS'mojomail-common-locale'
p9
aS'mojomail-common'
p10
asS'pv'
p11
S'2.0.0-99'
p12
sS'depends'
p13
S'autoconf-native automake-native boost cmake-modules-webos-native cmake-native curl db8 gnu-config-native icu jemalloc libpalmsocket libsandbox libtool-cross libtool-native pkgconfig-native pmloglib virtual/arm-webos-linux-gnueabi-compilerlibs virtual/arm-webos-linux-gnueabi-gcc virtual/libc'
p14
sS'src_uri'
p15
S'git://github.com/openwebos/mojomail'
p16
sS'pe'
p17
S'0'
p18
sS'bbfile'
p19
S'/home/jenkins/webos-ports/workspace/webos-ports/meta-webos-ports/recipes-webos/mojomail/mojomail-common.bb'
p20
sS'srcrev'
p21
(lp22
S'9a4316e6bcb76445673d48a310b0bd446b280f94'
p23
asS'pn'
p24
S'mojomail-common'
p25
s.(dp0
S'pr'
p1
S'r0.0'
p2
sS'packagelist'
p3
(lp4
S'qtwebkit-qmlplugins-dbg'
p5
aS'qtwebkit-tools-dbg'
p6
aS'qtwebkit-plugins-dbg'
p7
aS'qtwebkit-qmlplugins'
p8
aS'qtwebkit-tools'
p9
aS'qtwebkit-plugins'
p10
aS'qtwebkit-mkspecs'
p11
aS'qtwebkit-examples-dev'
p12
aS'qtwebkit-examples-staticdev'
p13
aS'qtwebkit-examples-dbg'
p14
aS'qtwebkit-examples'
p15
aS'qtwebkit-dbg'
p16
aS'qtwebkit-staticdev'
p17
aS'qtwebkit-dev'
p18
aS'qtwebkit-doc'
p19
aS'qtwebkit-locale'
p20
aS'qtwebkit'
p21
asS'pv'
p22
S'5.0.2'
p23
sS'depends'
p24
S'icu qtbase-native qtdeclarative qtlocation qtsensors ruby-native sqlite3 virtual/arm-webos-linux-gnueabi-compilerlibs virtual/arm-webos-linux-gnueabi-gcc virtual/libc'
p25
sS'src_uri'
p26
S'      http://releases.qt-project.org/qt5/5.0.2/submodules/qtwebkit-opensource-src-5.0.2.tar.xz '
p27
sS'pe'
p28
S'0'
p29
sS'bbfile'
p30
S'/home/jenkins/webos-ports/workspace/webos-ports/meta-qt5/recipes-qt/qt5/qtwebkit_5.0.2.bb'
p31
sS'srcrev'
p32
(lp33
sS'pn'
p34
S'qtwebkit'
p35
s.(dp0
S'pr'
p1
S'r0'
p2
sS'packagelist'
p3
(lp4
S'libsoup-2.4-dbg'
p5
aS'libsoup-2.4-staticdev'
p6
aS'libsoup-2.4-dev'
p7
aS'libsoup-2.4-doc'
p8
aS'libsoup-2.4-locale'
p9
aS'libsoup-2.4'
p10
asS'pv'
p11
S'2.40.3'
p12
sS'depends'
p13
S'autoconf-native automake-native glib-2.0 gnu-config-native gnutls libproxy libtool-cross libtool-native libxml2 pkgconfig-native virtual/arm-webos-linux-gnueabi-compilerlibs virtual/arm-webos-linux-gnueabi-gcc virtual/libc'
p14
sS'src_uri'
p15
S'http://ftp.gnome.org/pub/GNOME/sources/libsoup/2.40/libsoup-2.40.3.tar.xz'
p16
sS'pe'
p17
S'0'
p18
sS'bbfile'
p19
S'/home/jenkins/webos-ports/workspace/webos-ports/meta-webos-ports/recipes-support/libsoup/libsoup-2.4_2.40.3.bb'
p20
sS'srcrev'
p21
(lp22
sS'pn'
p23
S'libsoup-2.4'
p24
s.(dp0
S'pr'
p1
S'r0'
p2
sS'packagelist'
p3
(lp4
S'webkit-supplemental-dbg'
p5
aS'webkit-supplemental-staticdev'
p6
aS'webkit-supplemental-dev'
p7
aS'webkit-supplemental-doc'
p8
aS'webkit-supplemental-locale'
p9
aS'webkit-supplemental'
p10
asS'pv'
p11
S'2.0.0-0.5'
p12
sS'depends'
p13
S'pkgconfig-native qmake-webos-native qt4-webos virtual/arm-webos-linux-gnueabi-compilerlibs virtual/arm-webos-linux-gnueabi-gcc virtual/libc webkit-webos'
p14
sS'src_uri'
p15
S'git://github.com/isis-project/WebKitSupplemental'
p16
sS'pe'
p17
S'0'
p18
sS'bbfile'
p19
S'/home/jenkins/webos-ports/workspace/webos-ports/meta-webos-ports/recipes-webos/webkit-supplemental/webkit-supplemental.bb'
p20
sS'srcrev'
p21
(lp22
S'70fb05fd340ab342c5132dc8bfa174dbe6c9d330'
p23
asS'pn'
p24
S'webkit-supplemental'
p25
s.(dp0
S'pr'
p1
S'r0'
p2
sS'packagelist'
p3
(lp4
S'powerd-dbg'
p5
aS'powerd-staticdev'
p6
aS'powerd-dev'
p7
aS'powerd-doc'
p8
aS'powerd-locale'
p9
aS'powerd'
p10
asS'pv'
p11
S'4.0.0-19'
p12
sS'depends'
p13
S'autoconf-native automake-native cjson cmake-modules-webos-native cmake-native glib-2.0 gnu-config-native libtool-cross libtool-native luna-service2 nyx-lib pkgconfig-native virtual/arm-webos-linux-gnueabi-compilerlibs virtual/arm-webos-linux-gnueabi-gcc virtual/libc'
p14
sS'src_uri'
p15
S'git://github.com/openwebos/powerd'
p16
sS'pe'
p17
S'0'
p18
sS'bbfile'
p19
S'/home/jenkins/webos-ports/workspace/webos-ports/meta-webos-ports/recipes-webos/powerd/powerd.bb'
p20
sS'srcrev'
p21
(lp22
S'a9181b66bc8d5a526588bfd1489beb292900a084'
p23
asS'pn'
p24
S'powerd'
p25
s.(dp0
S'pr'
p1
S'r0'
p2
sS'packagelist'
p3
(lp4
S'pmloglib-private-dbg'
p5
aS'pmloglib-private-staticdev'
p6
aS'pmloglib-private-dev'
p7
aS'pmloglib-private-doc'
p8
aS'pmloglib-private-locale'
p9
aS'pmloglib-private'
p10
asS'pv'
p11
S'3.0.0-30'
p12
sS'depends'
p13
S'autoconf-native automake-native cmake-modules-webos-native cmake-native gnu-config-native libtool-cross libtool-native pkgconfig-native virtual/arm-webos-linux-gnueabi-compilerlibs virtual/arm-webos-linux-gnueabi-gcc virtual/libc'
p14
sS'src_uri'
p15
S'git://github.com/openwebos/pmloglib'
p16
sS'pe'
p17
S'0'
p18
sS'bbfile'
p19
S'/home/jenkins/webos-ports/workspace/webos-ports/meta-webos-ports/recipes-webos/pmloglib/pmloglib-private.bb'
p20
sS'srcrev'
p21
(lp22
S'9ddcaf8601403f9fb048de4db3f7eca3bf506577'
p23
asS'pn'
p24
S'pmloglib-private'
p25
s.(dp0
S'pr'
p1
S'r0'
p2
sS'packagelist'
p3
(lp4
S'luna-sysmgr-common-dbg'
p5
aS'luna-sysmgr-common-staticdev'
p6
aS'luna-sysmgr-common-dev'
p7
aS'luna-sysmgr-common-doc'
p8
aS'luna-sysmgr-common-locale'
p9
aS'luna-sysmgr-common'
p10
asS'pv'
p11
S'3.0.0-3+wop+gitrAUTOINC+67ff08574618582a2f74626929cddaad2fbfcb4f'
p12
sS'depends'
p13
S'cjson glib-2.0 libpbnjson librolegen luna-prefs luna-service2 luna-sysmgr-ipc luna-sysmgr-ipc-messages luna-webkit-api nyx-lib pkgconfig-native pmloglib qmake-webos-native qt-palm-plugin qt4-webos serviceinstaller sqlite3 virtual/arm-webos-linux-gnueabi-compilerlibs virtual/arm-webos-linux-gnueabi-gcc virtual/libc'
p14
sS'src_uri'
p15
S'git://github.com/webOS-ports/luna-sysmgr-common;branch=webOS-ports/master'
p16
sS'pe'
p17
S'0'
p18
sS'bbfile'
p19
S'/home/jenkins/webos-ports/workspace/webos-ports/meta-webos-ports/recipes-webos/luna-sysmgr-common/luna-sysmgr-common.bb'
p20
sS'srcrev'
p21
(lp22
S'67ff08574618582a2f74626929cddaad2fbfcb4f'
p23
asS'pn'
p24
S'luna-sysmgr-common'
p25
s.(dp0
S'pr'
p1
S'r8'
p2
sS'packagelist'
p3
(lp4
S'gst-plugins-good-dbg'
p5
aS'gst-plugins-good-staticdev'
p6
aS'gst-plugins-good-dev'
p7
aS'gst-plugins-good-doc'
p8
aS'gst-plugins-good-locale'
p9
aS'gst-plugins-good'
p10
aS'gst-plugins-good-apps'
p11
aS'gst-plugins-good-meta'
p12
aS'gst-plugins-good-glib'
p13
asS'pv'
p14
S'0.10.31'
p15
sS'depends'
p16
S'autoconf-native automake-native cairo flac gconf gconf gconf-native gettext-native gnu-config-native gst-plugins-base gstreamer jpeg libid3tag libpng libsoup-2.4 libtool-cross libtool-native pkgconfig-native pulseaudio speex virtual/arm-webos-linux-gnueabi-compilerlibs virtual/arm-webos-linux-gnueabi-gcc virtual/gettext virtual/libc zlib'
p17
sS'src_uri'
p18
S'http://gstreamer.freedesktop.org/src/gst-plugins-good/gst-plugins-good-0.10.31.tar.bz2 file://0001-v4l2-fix-build-with-recent-kernels-the-v4l2_buffer-i.patch'
p19
sS'pe'
p20
S'0'
p21
sS'bbfile'
p22
S'/home/jenkins/webos-ports/workspace/webos-ports/openembedded-core/meta/recipes-multimedia/gstreamer/gst-plugins-good_0.10.31.bb'
p23
sS'srcrev'
p24
(lp25
sS'pn'
p26
S'gst-plugins-good'
p27
s.(dp0
S'pr'
p1
S'r0'
p2
sS'packagelist'
p3
(lp4
S'browserserver-dbg'
p5
aS'browserserver-staticdev'
p6
aS'browserserver-dev'
p7
aS'browserserver-doc'
p8
aS'browserserver-locale'
p9
aS'browserserver'
p10
asS'pv'
p11
S'3.0.0-0.7.2+wop+gitrAUTOINC+58ec890291dfa1a927faba069f8b0f1d8ac94e2d'
p12
sS'depends'
p13
S'flex-native glib-2.0 jemalloc libpbnjson libpbnjson luna-service2 luna-sysmgr-ipc-messages luna-webkit-api pkgconfig-native pmcertificatemgr qt4-webos virtual/arm-webos-linux-gnueabi-compilerlibs virtual/arm-webos-linux-gnueabi-gcc virtual/libc webkit-supplemental webkit-webos'
p14
sS'src_uri'
p15
S'git://github.com/webOS-ports/BrowserServer;branch=webOS-ports/master'
p16
sS'pe'
p17
S'0'
p18
sS'bbfile'
p19
S'/home/jenkins/webos-ports/workspace/webos-ports/meta-webos-ports/recipes-webos/browserserver/browserserver.bb'
p20
sS'srcrev'
p21
(lp22
S'58ec890291dfa1a927faba069f8b0f1d8ac94e2d'
p23
asS'pn'
p24
S'browserserver'
p25
s.(dp0
S'pr'
p1
S'r0'
p2
sS'packagelist'
p3
(lp4
S'webos-connman-adapter-dbg'
p5
aS'webos-connman-adapter-staticdev'
p6
aS'webos-connman-adapter-dev'
p7
aS'webos-connman-adapter-doc'
p8
aS'webos-connman-adapter-locale'
p9
aS'webos-connman-adapter'
p10
asS'pv'
p11
S'1.0.0-10'
p12
sS'depends'
p13
S'autoconf-native automake-native cmake-modules-webos-native cmake-native glib-2.0 gnu-config-native libpbnjson libtool-cross libtool-native luna-prefs luna-service2 openssl pkgconfig-native virtual/arm-webos-linux-gnueabi-compilerlibs virtual/arm-webos-linux-gnueabi-gcc virtual/libc'
p14
sS'src_uri'
p15
S'git://github.com/openwebos/webos-connman-adapter file://0001-Don-t-treat-none-as-security-type.patch'
p16
sS'pe'
p17
S'0'
p18
sS'bbfile'
p19
S'/home/jenkins/webos-ports/workspace/webos-ports/meta-webos-ports/recipes-webos/webos-connman-adapter/webos-connman-adapter.bb'
p20
sS'srcrev'
p21
(lp22
S'81b7d1370a7bf7449f47e24fa1df21b21143a8ba'
p23
asS'pn'
p24
S'webos-connman-adapter'
p25
s.(dp0
S'pr'
p1
S'r0'
p2
sS'packagelist'
p3
(lp4
S'nodejs-module-webos-sysbus-dbg'
p5
aS'nodejs-module-webos-sysbus-staticdev'
p6
aS'nodejs-module-webos-sysbus-dev'
p7
aS'nodejs-module-webos-sysbus-doc'
p8
aS'nodejs-module-webos-sysbus-locale'
p9
aS'nodejs-module-webos-sysbus'
p10
asS'pv'
p11
S'2.0.0-25'
p12
sS'depends'
p13
S'autoconf-native automake-native cmake-modules-webos-native cmake-native gnu-config-native libtool-cross libtool-native luna-service2 nodejs pkgconfig-native virtual/arm-webos-linux-gnueabi-compilerlibs virtual/arm-webos-linux-gnueabi-gcc virtual/libc'
p14
sS'src_uri'
p15
S'git://github.com/openwebos/nodejs-module-webos-sysbus'
p16
sS'pe'
p17
S'0'
p18
sS'bbfile'
p19
S'/home/jenkins/webos-ports/workspace/webos-ports/meta-webos-ports/recipes-webos/nodejs-module-webos/nodejs-module-webos-sysbus.bb'
p20
sS'srcrev'
p21
(lp22
S'e9d90d36a265ed3500274e40ba98a5959d89747f'
p23
asS'pn'
p24
S'nodejs-module-webos-sysbus'
p25
s.(dp0
S'pr'
p1
S'r0'
p2
sS'packagelist'
p3
(lp4
S'nodejs-module-webos-pmlog-dbg'
p5
aS'nodejs-module-webos-pmlog-staticdev'
p6
aS'nodejs-module-webos-pmlog-dev'
p7
aS'nodejs-module-webos-pmlog-doc'
p8
aS'nodejs-module-webos-pmlog-locale'
p9
aS'nodejs-module-webos-pmlog'
p10
asS'pv'
p11
S'3.0.0-13'
p12
sS'depends'
p13
S'autoconf-native automake-native cmake-modules-webos-native cmake-native gnu-config-native libtool-cross libtool-native nodejs pkgconfig-native pmloglib virtual/arm-webos-linux-gnueabi-compilerlibs virtual/arm-webos-linux-gnueabi-gcc virtual/libc'
p14
sS'src_uri'
p15
S'git://github.com/openwebos/nodejs-module-webos-pmlog'
p16
sS'pe'
p17
S'0'
p18
sS'bbfile'
p19
S'/home/jenkins/webos-ports/workspace/webos-ports/meta-webos-ports/recipes-webos/nodejs-module-webos/nodejs-module-webos-pmlog.bb'
p20
sS'srcrev'
p21
(lp22
S'93169c8f322ef57bed0020181b28e4caac6c5775'
p23
asS'pn'
p24
S'nodejs-module-webos-pmlog'
p25
s.(dp0
S'pr'
p1
S'r0'
p2
sS'packagelist'
p3
(lp4
S'qt5-webos-plugin-dbg'
p5
aS'qt5-webos-plugin-staticdev'
p6
aS'qt5-webos-plugin-dev'
p7
aS'qt5-webos-plugin-doc'
p8
aS'qt5-webos-plugin-locale'
p9
aS'qt5-webos-plugin'
p10
asS'pv'
p11
S'0.1.0+gitrAUTOINC+f0283c9148a7e070f0e042085c92ba003acc5443'
p12
sS'depends'
p13
S'libwebos-gui luna-sysmgr-ipc luna-sysmgr-ipc-messages qtbase qtbase-native qtdeclarative qtwebkit virtual/arm-webos-linux-gnueabi-compilerlibs virtual/arm-webos-linux-gnueabi-gcc virtual/libc'
p14
sS'src_uri'
p15
S'git://github.com/webOS-ports/qt5-webos-plugin.git;protocol=git;branch=master'
p16
sS'pe'
p17
S'0'
p18
sS'bbfile'
p19
S'/home/jenkins/webos-ports/workspace/webos-ports/meta-webos-ports/recipes-webos/qt5-webos-plugin/qt5-webos-plugin_git.bb'
p20
sS'srcrev'
p21
(lp22
S'f0283c9148a7e070f0e042085c92ba003acc5443'
p23
asS'pn'
p24
S'qt5-webos-plugin'
p25
s.(dp0
S'pr'
p1
S'r0'
p2
sS'packagelist'
p3
(lp4
S'snowshoe-dbg'
p5
aS'snowshoe-staticdev'
p6
aS'snowshoe-dev'
p7
aS'snowshoe-doc'
p8
aS'snowshoe-locale'
p9
aS'snowshoe'
p10
asS'pv'
p11
S'0.2.6+gitrAUTOINC+35afbe295043bd3e27357b8e987ec19b54bfd8c8'
p12
sS'depends'
p13
S'qtbase qtbase-native qtdeclarative qtwebkit virtual/arm-webos-linux-gnueabi-compilerlibs virtual/arm-webos-linux-gnueabi-gcc virtual/libc'
p14
sS'src_uri'
p15
S'     git://gitorious.org/qt-apps/snowshoe.git;branch=master;protocol=git     file://appinfo.json'
p16
sS'pe'
p17
S'0'
p18
sS'bbfile'
p19
S'/home/jenkins/webos-ports/workspace/webos-ports/meta-webos-ports/recipes-qt/snowshoe/snowshoe_git.bb'
p20
sS'srcrev'
p21
(lp22
S'35afbe295043bd3e27357b8e987ec19b54bfd8c8'
p23
asS'pn'
p24
S'snowshoe'
p25
s.(dp0
S'pr'
p1
S'r0'
p2
sS'packagelist'
p3
(lp4
S'org.webosinternals.service.update-dbg'
p5
aS'org.webosinternals.service.update-staticdev'
p6
aS'org.webosinternals.service.update-dev'
p7
aS'org.webosinternals.service.update-doc'
p8
aS'org.webosinternals.service.update-locale'
p9
aS'org.webosinternals.service.update'
p10
asS'pv'
p11
S'0.1.0+gitrAUTOINC+fca1778af67a38e5105ea99ee86540963a031c3e'
p12
sS'depends'
p13
S'autoconf-native automake-native cmake-modules-webos-native cmake-native glib-2.0 gnu-config-native libpbnjson libtool-cross libtool-native luna-service2 opkg pkgconfig-native virtual/arm-webos-linux-gnueabi-compilerlibs virtual/arm-webos-linux-gnueabi-gcc virtual/libc'
p14
sS'src_uri'
p15
S'git://github.com/webOS-ports/org.webosinternals.service.update;branch=master;protocol=git'
p16
sS'pe'
p17
S'0'
p18
sS'bbfile'
p19
S'/home/jenkins/webos-ports/workspace/webos-ports/meta-webos-ports/recipes-webos/services/org.webosinternals.service.update.bb'
p20
sS'srcrev'
p21
(lp22
S'fca1778af67a38e5105ea99ee86540963a031c3e'
p23
asS'pn'
p24
S'org.webosinternals.service.update'
p25
s.(dp0
S'pr'
p1
S'r0'
p2
sS'packagelist'
p3
(lp4
S'org.webosinternals.ipkgservice-dbg'
p5
aS'org.webosinternals.ipkgservice-staticdev'
p6
aS'org.webosinternals.ipkgservice-dev'
p7
aS'org.webosinternals.ipkgservice-doc'
p8
aS'org.webosinternals.ipkgservice-locale'
p9
aS'org.webosinternals.ipkgservice'
p10
asS'pv'
p11
S'2.0.0+gitAUTOINC+65cb032e6d61a3190ff58bc76b485d4ccf864702'
p12
sS'depends'
p13
S'autoconf-native automake-native cmake-modules-webos-native cmake-native glib-2.0 gnu-config-native libtool-cross libtool-native luna-service2 mjson pkgconfig-native virtual/arm-webos-linux-gnueabi-compilerlibs virtual/arm-webos-linux-gnueabi-gcc virtual/libc'
p14
sS'src_uri'
p15
S'git://github.com/webOS-ports/preware;protocol=git;branch=master'
p16
sS'pe'
p17
S'0'
p18
sS'bbfile'
p19
S'/home/jenkins/webos-ports/workspace/webos-ports/meta-webos-ports/recipes-webos/services/org.webosinternals.ipkgservice.bb'
p20
sS'srcrev'
p21
(lp22
S'65cb032e6d61a3190ff58bc76b485d4ccf864702'
p23
asS'pn'
p24
S'org.webosinternals.ipkgservice'
p25
s.(dp0
S'pr'
p1
S'r0'
p2
sS'packagelist'
p3
(lp4
S'org.webosinternals.service.upstartmgr-dbg'
p5
aS'org.webosinternals.service.upstartmgr-staticdev'
p6
aS'org.webosinternals.service.upstartmgr-dev'
p7
aS'org.webosinternals.service.upstartmgr-doc'
p8
aS'org.webosinternals.service.upstartmgr-locale'
p9
aS'org.webosinternals.service.upstartmgr'
p10
asS'pv'
p11
S'0.1.0+gitAUTOINC+ba7941c5ca2c3c13f8b149dc998354174d8241f9'
p12
sS'depends'
p13
S'autoconf-native automake-native cmake-modules-webos-native cmake-native glib-2.0 gnu-config-native libtool-cross libtool-native luna-service2 mjson pkgconfig-native virtual/arm-webos-linux-gnueabi-compilerlibs virtual/arm-webos-linux-gnueabi-gcc virtual/libc'
p14
sS'src_uri'
p15
S'git://github.com/webOS-ports/org.webosinternals.service.upstartmgr;branch=master;protocol=git'
p16
sS'pe'
p17
S'0'
p18
sS'bbfile'
p19
S'/home/jenkins/webos-ports/workspace/webos-ports/meta-webos-ports/recipes-webos/services/org.webosinternals.service.upstartmgr.bb'
p20
sS'srcrev'
p21
(lp22
S'ba7941c5ca2c3c13f8b149dc998354174d8241f9'
p23
asS'pn'
p24
S'org.webosinternals.service.upstartmgr'
p25
s.(dp0
S'pr'
p1
S'r0'
p2
sS'packagelist'
p3
(lp4
S'luna-universalsearchmgr-dbg'
p5
aS'luna-universalsearchmgr-staticdev'
p6
aS'luna-universalsearchmgr-dev'
p7
aS'luna-universalsearchmgr-doc'
p8
aS'luna-universalsearchmgr-locale'
p9
aS'luna-universalsearchmgr'
p10
asS'pv'
p11
S'2.0.0-1.00'
p12
sS'depends'
p13
S'autoconf-native automake-native cjson cmake-modules-webos-native cmake-native glib-2.0 gnu-config-native libtool-cross libtool-native libxml2 luna-service2 pkgconfig-native sqlite3 virtual/arm-webos-linux-gnueabi-compilerlibs virtual/arm-webos-linux-gnueabi-gcc virtual/libc'
p14
sS'src_uri'
p15
S'git://github.com/openwebos/luna-universalsearchmgr'
p16
sS'pe'
p17
S'0'
p18
sS'bbfile'
p19
S'/home/jenkins/webos-ports/workspace/webos-ports/meta-webos-ports/recipes-webos/luna-universalsearchmgr/luna-universalsearchmgr.bb'
p20
sS'srcrev'
p21
(lp22
S'a9a7751d97888f88b1b9a0bfa9b7997201d4f4cc'
p23
asS'pn'
p24
S'luna-universalsearchmgr'
p25
s.(dp0
S'pr'
p1
S'r0'
p2
sS'packagelist'
p3
(lp4
S'sleepd-dbg'
p5
aS'sleepd-staticdev'
p6
aS'sleepd-dev'
p7
aS'sleepd-doc'
p8
aS'sleepd-locale'
p9
aS'sleepd'
p10
asS'pv'
p11
S'1.1.1-14'
p12
sS'depends'
p13
S'autoconf-native automake-native cjson cmake-modules-webos-native cmake-native glib-2.0 gnu-config-native libtool-cross libtool-native libxml2 luna-service2 nyx-lib pkgconfig-native powerd sqlite3 virtual/arm-webos-linux-gnueabi-compilerlibs virtual/arm-webos-linux-gnueabi-gcc virtual/libc'
p14
sS'src_uri'
p15
S'git://github.com/openwebos/sleepd file://use-wakelockd-for-suspend.patch'
p16
sS'pe'
p17
S'0'
p18
sS'bbfile'
p19
S'/home/jenkins/webos-ports/workspace/webos-ports/meta-webos-ports/recipes-webos/sleepd/sleepd.bb'
p20
sS'srcrev'
p21
(lp22
S'242ce195a3c6f1530d908fb3abdce1f9f2629986'
p23
asS'pn'
p24
S'sleepd'
p25
s.(dp0
S'pr'
p1
S'r0'
p2
sS'packagelist'
p3
(lp4
S'pmlogdaemon-dbg'
p5
aS'pmlogdaemon-staticdev'
p6
aS'pmlogdaemon-dev'
p7
aS'pmlogdaemon-doc'
p8
aS'pmlogdaemon-locale'
p9
aS'pmlogdaemon'
p10
asS'pv'
p11
S'3.0.0-105'
p12
sS'depends'
p13
S'autoconf-native automake-native cmake-modules-webos-native cmake-native glib-2.0 gnu-config-native libpbnjson librdx libtool-cross libtool-native pkgconfig-native pmloglib pmloglib-private virtual/arm-webos-linux-gnueabi-compilerlibs virtual/arm-webos-linux-gnueabi-gcc virtual/libc zlib'
p14
sS'src_uri'
p15
S'git://github.com/openwebos/pmlogdaemon'
p16
sS'pe'
p17
S'0'
p18
sS'bbfile'
p19
S'/home/jenkins/webos-ports/workspace/webos-ports/meta-webos-ports/recipes-webos/pmlogdaemon/pmlogdaemon.bb'
p20
sS'srcrev'
p21
(lp22
S'40d4e06b2be0926ae102666da97543824458ce1b'
p23
asS'pn'
p24
S'pmlogdaemon'
p25
s.(dp0
S'pr'
p1
S'r0'
p2
sS'packagelist'
p3
(lp4
S'pmlogctl-dbg'
p5
aS'pmlogctl-staticdev'
p6
aS'pmlogctl-dev'
p7
aS'pmlogctl-doc'
p8
aS'pmlogctl-locale'
p9
aS'pmlogctl'
p10
asS'pv'
p11
S'3.0.0-12'
p12
sS'depends'
p13
S'autoconf-native automake-native cmake-modules-webos-native cmake-native gnu-config-native libtool-cross libtool-native pkgconfig-native pmloglib virtual/arm-webos-linux-gnueabi-compilerlibs virtual/arm-webos-linux-gnueabi-gcc virtual/libc'
p14
sS'src_uri'
p15
S'git://github.com/openwebos/pmlogctl'
p16
sS'pe'
p17
S'0'
p18
sS'bbfile'
p19
S'/home/jenkins/webos-ports/workspace/webos-ports/meta-webos-ports/recipes-webos/pmlogctl/pmlogctl.bb'
p20
sS'srcrev'
p21
(lp22
S'099f824d57264ef621e0738d8eee0419a6133276'
p23
asS'pn'
p24
S'pmlogctl'
p25
s.(dp0
S'pr'
p1
S'r0'
p2
sS'packagelist'
p3
(lp4
S'nyx-modules-dbg'
p5
aS'nyx-modules-staticdev'
p6
aS'nyx-modules-dev'
p7
aS'nyx-modules-doc'
p8
aS'nyx-modules-locale'
p9
aS'nyx-modules'
p10
aS'nyx-modules-tests'
p11
asS'pv'
p12
S'5.1.0-89+wop+gitrAUTOINC+daab3e726eb1512a124f9cc6a2a9bbd0968531ba'
p13
sS'depends'
p14
S'autoconf-native automake-native cmake-modules-webos-native cmake-native glib-2.0 gnu-config-native libtool-cross libtool-native luna-service2 mtdev nyx-lib openssl pkgconfig-native virtual/arm-webos-linux-gnueabi-compilerlibs virtual/arm-webos-linux-gnueabi-gcc virtual/libc'
p15
sS'src_uri'
p16
S'git://github.com/webOS-ports/nyx-modules;branch=webOS-ports/master'
p17
sS'pe'
p18
S'0'
p19
sS'bbfile'
p20
S'/home/jenkins/webos-ports/workspace/webos-ports/meta-webos-ports/recipes-webos/nyx-modules/nyx-modules.bb'
p21
sS'srcrev'
p22
(lp23
S'daab3e726eb1512a124f9cc6a2a9bbd0968531ba'
p24
asS'pn'
p25
S'nyx-modules'
p26
s.(dp0
S'pr'
p1
S'r0'
p2
sS'packagelist'
p3
(lp4
S'mojoservicelauncher-dbg'
p5
aS'mojoservicelauncher-staticdev'
p6
aS'mojoservicelauncher-dev'
p7
aS'mojoservicelauncher-doc'
p8
aS'mojoservicelauncher-locale'
p9
aS'mojoservicelauncher'
p10
asS'pv'
p11
S'2.0.0-71'
p12
sS'depends'
p13
S'autoconf-native automake-native boost cmake-modules-webos-native cmake-native gnu-config-native libpbnjson libtool-cross libtool-native pkgconfig-native virtual/arm-webos-linux-gnueabi-compilerlibs virtual/arm-webos-linux-gnueabi-gcc virtual/libc'
p14
sS'src_uri'
p15
S'git://github.com/openwebos/mojoservicelauncher file://disable-jailing-per-default.patch'
p16
sS'pe'
p17
S'0'
p18
sS'bbfile'
p19
S'/home/jenkins/webos-ports/workspace/webos-ports/meta-webos-ports/recipes-webos/mojoservicelauncher/mojoservicelauncher.bb'
p20
sS'srcrev'
p21
(lp22
S'8ed954566fe77432e9b5a3c30f7654a0ec9c6466'
p23
asS'pn'
p24
S'mojoservicelauncher'
p25
s.(dp0
S'pr'
p1
S'r0'
p2
sS'packagelist'
p3
(lp4
S'mojomail-smtp-dbg'
p5
aS'mojomail-smtp-staticdev'
p6
aS'mojomail-smtp-dev'
p7
aS'mojomail-smtp-doc'
p8
aS'mojomail-smtp-locale'
p9
aS'mojomail-smtp'
p10
asS'pv'
p11
S'2.0.0-99'
p12
sS'depends'
p13
S'autoconf-native automake-native boost c-ares cjson cmake-modules-webos-native cmake-native curl db8 glib-2.0 gnu-config-native icu jemalloc libpalmsocket libsandbox libtool-cross libtool-native luna-service2 mojomail-common pkgconfig-native pmloglib virtual/arm-webos-linux-gnueabi-compilerlibs virtual/arm-webos-linux-gnueabi-gcc virtual/libc'
p14
sS'src_uri'
p15
S'git://github.com/openwebos/mojomail'
p16
sS'pe'
p17
S'0'
p18
sS'bbfile'
p19
S'/home/jenkins/webos-ports/workspace/webos-ports/meta-webos-ports/recipes-webos/mojomail/mojomail-smtp.bb'
p20
sS'srcrev'
p21
(lp22
S'9a4316e6bcb76445673d48a310b0bd446b280f94'
p23
asS'pn'
p24
S'mojomail-smtp'
p25
s.(dp0
S'pr'
p1
S'r0'
p2
sS'packagelist'
p3
(lp4
S'mojomail-pop-dbg'
p5
aS'mojomail-pop-staticdev'
p6
aS'mojomail-pop-dev'
p7
aS'mojomail-pop-doc'
p8
aS'mojomail-pop-locale'
p9
aS'mojomail-pop'
p10
asS'pv'
p11
S'2.0.0-99'
p12
sS'depends'
p13
S'autoconf-native automake-native boost c-ares cjson cmake-modules-webos-native cmake-native db8 glib-2.0 gnu-config-native icu jemalloc libpalmsocket libsandbox libtool-cross libtool-native luna-service2 mojomail-common pkgconfig-native pmloglib virtual/arm-webos-linux-gnueabi-compilerlibs virtual/arm-webos-linux-gnueabi-gcc virtual/libc'
p14
sS'src_uri'
p15
S'git://github.com/openwebos/mojomail'
p16
sS'pe'
p17
S'0'
p18
sS'bbfile'
p19
S'/home/jenkins/webos-ports/workspace/webos-ports/meta-webos-ports/recipes-webos/mojomail/mojomail-pop.bb'
p20
sS'srcrev'
p21
(lp22
S'9a4316e6bcb76445673d48a310b0bd446b280f94'
p23
asS'pn'
p24
S'mojomail-pop'
p25
s.(dp0
S'pr'
p1
S'r0'
p2
sS'packagelist'
p3
(lp4
S'mojomail-imap-dbg'
p5
aS'mojomail-imap-staticdev'
p6
aS'mojomail-imap-dev'
p7
aS'mojomail-imap-doc'
p8
aS'mojomail-imap-locale'
p9
aS'mojomail-imap'
p10
asS'pv'
p11
S'2.0.0-99'
p12
sS'depends'
p13
S'autoconf-native automake-native boost c-ares cjson cmake-modules-webos-native cmake-native db8 glib-2.0 gnu-config-native icu jemalloc libpalmsocket libsandbox libtool-cross libtool-native luna-service2 mojomail-common pkgconfig-native pmloglib virtual/arm-webos-linux-gnueabi-compilerlibs virtual/arm-webos-linux-gnueabi-gcc virtual/libc'
p14
sS'src_uri'
p15
S'git://github.com/openwebos/mojomail'
p16
sS'pe'
p17
S'0'
p18
sS'bbfile'
p19
S'/home/jenkins/webos-ports/workspace/webos-ports/meta-webos-ports/recipes-webos/mojomail/mojomail-imap.bb'
p20
sS'srcrev'
p21
(lp22
S'9a4316e6bcb76445673d48a310b0bd446b280f94'
p23
asS'pn'
p24
S'mojomail-imap'
p25
s.(dp0
S'pr'
p1
S'r0'
p2
sS'packagelist'
p3
(lp4
S'luna-sysservice-dbg'
p5
aS'luna-sysservice-staticdev'
p6
aS'luna-sysservice-dev'
p7
aS'luna-sysservice-doc'
p8
aS'luna-sysservice-locale'
p9
aS'luna-sysservice'
p10
asS'pv'
p11
S'2.0.1-1.04'
p12
sS'depends'
p13
S'autoconf-native automake-native cmake-modules-webos-native cmake-native gnu-config-native libpbnjson libtool-cross libtool-native luna-service2 pkgconfig-native qt4-webos uriparser virtual/arm-webos-linux-gnueabi-compilerlibs virtual/arm-webos-linux-gnueabi-gcc virtual/libc'
p14
sS'src_uri'
p15
S'git://github.com/openwebos/luna-sysservice'
p16
sS'pe'
p17
S'0'
p18
sS'bbfile'
p19
S'/home/jenkins/webos-ports/workspace/webos-ports/meta-webos-ports/recipes-webos/luna-sysservice/luna-sysservice.bb'
p20
sS'srcrev'
p21
(lp22
S'e19d2962fca7f03df92825827c55254e32200feb'
p23
asS'pn'
p24
S'luna-sysservice'
p25
s.(dp0
S'pr'
p1
S'r0'
p2
sS'packagelist'
p3
(lp4
S'filecache-dbg'
p5
aS'filecache-staticdev'
p6
aS'filecache-dev'
p7
aS'filecache-doc'
p8
aS'filecache-locale'
p9
aS'filecache'
p10
asS'pv'
p11
S'2.0.0-55'
p12
sS'depends'
p13
S'autoconf-native automake-native boost cmake-modules-webos-native cmake-native db8 glib-2.0 glibmm gnu-config-native jemalloc libsandbox libsigc++-2.0 libtool-cross libtool-native luna-service2 pkgconfig-native virtual/arm-webos-linux-gnueabi-compilerlibs virtual/arm-webos-linux-gnueabi-gcc virtual/libc'
p14
sS'src_uri'
p15
S'git://github.com/openwebos/filecache'
p16
sS'pe'
p17
S'0'
p18
sS'bbfile'
p19
S'/home/jenkins/webos-ports/workspace/webos-ports/meta-webos-ports/recipes-webos/filecache/filecache.bb'
p20
sS'srcrev'
p21
(lp22
S'e95fd53e8598b99950a7fab2e13dbbad0f12f0b6'
p23
asS'pn'
p24
S'filecache'
p25
s.(dp0
S'pr'
p1
S'r0'
p2
sS'packagelist'
p3
(lp4
S'configurator-dbg'
p5
aS'configurator-staticdev'
p6
aS'configurator-dev'
p7
aS'configurator-doc'
p8
aS'configurator-locale'
p9
aS'configurator'
p10
asS'pv'
p11
S'2.0.0-48'
p12
sS'depends'
p13
S'autoconf-native automake-native cjson cmake-modules-webos-native cmake-native db8 glib-2.0 gnu-config-native libtool-cross libtool-native luna-service2 pkgconfig-native virtual/arm-webos-linux-gnueabi-compilerlibs virtual/arm-webos-linux-gnueabi-gcc virtual/libc'
p14
sS'src_uri'
p15
S'git://github.com/openwebos/configurator'
p16
sS'pe'
p17
S'0'
p18
sS'bbfile'
p19
S'/home/jenkins/webos-ports/workspace/webos-ports/meta-webos-ports/recipes-webos/configurator/configurator.bb'
p20
sS'srcrev'
p21
(lp22
S'3be478322fc87f0340770a62be5627d1625ae462'
p23
asS'pn'
p24
S'configurator'
p25
s.(dp0
S'pr'
p1
S'r0'
p2
sS'packagelist'
p3
(lp4
S'activitymanager-dbg'
p5
aS'activitymanager-staticdev'
p6
aS'activitymanager-dev'
p7
aS'activitymanager-doc'
p8
aS'activitymanager-locale'
p9
aS'activitymanager'
p10
asS'pv'
p11
S'2.0.0-110'
p12
sS'depends'
p13
S'autoconf-native automake-native boost cmake-modules-webos-native cmake-native db8 glib-2.0 gnu-config-native libtool-cross libtool-native luna-service2 openssl pkgconfig-native virtual/arm-webos-linux-gnueabi-compilerlibs virtual/arm-webos-linux-gnueabi-gcc virtual/libc'
p14
sS'src_uri'
p15
S'git://github.com/openwebos/activitymanager'
p16
sS'pe'
p17
S'0'
p18
sS'bbfile'
p19
S'/home/jenkins/webos-ports/workspace/webos-ports/meta-webos-ports/recipes-webos/activitymanager/activitymanager.bb'
p20
sS'srcrev'
p21
(lp22
S'84ac0d7e9a87f5bb190a553ff827458e2dd1426c'
p23
asS'pn'
p24
S'activitymanager'
p25
s.(dp0
S'pr'
p1
S'r13'
p2
sS'packagelist'
p3
(lp4
S'gst-meta-base'
p5
aS'gst-meta-x11-base'
p6
aS'gst-meta-audio'
p7
aS'gst-meta-debug'
p8
aS'gst-meta-video'
p9
asS'pv'
p10
S'0.10'
p11
sS'depends'
p12
S'gst-plugins-bad gst-plugins-base gst-plugins-good gstreamer virtual/arm-webos-linux-gnueabi-compilerlibs virtual/arm-webos-linux-gnueabi-gcc virtual/libc'
p13
sS'src_uri'
p14
S''
p15
sS'pe'
p16
S'0'
p17
sS'bbfile'
p18
S'/home/jenkins/webos-ports/workspace/webos-ports/openembedded-core/meta/recipes-multimedia/gstreamer/gst-meta-base_0.10.bb'
p19
sS'srcrev'
p20
(lp21
sS'pn'
p22
S'gst-meta-base'
p23
s.(dp0
S'pr'
p1
S'r0'
p2
sS'packagelist'
p3
(lp4
S'browser-adapter-dbg'
p5
aS'browser-adapter-staticdev'
p6
aS'browser-adapter-dev'
p7
aS'browser-adapter-doc'
p8
aS'browser-adapter-locale'
p9
aS'browser-adapter'
p10
asS'pv'
p11
S'3.0.0-0.4'
p12
sS'depends'
p13
S'adapterbase browserserver glib-2.0 libpng npapi-headers pkgconfig-native qt4-webos virtual/arm-webos-linux-gnueabi-compilerlibs virtual/arm-webos-linux-gnueabi-gcc virtual/libc'
p14
sS'src_uri'
p15
S'git://github.com/isis-project/BrowserAdapter'
p16
sS'pe'
p17
S'0'
p18
sS'bbfile'
p19
S'/home/jenkins/webos-ports/workspace/webos-ports/meta-webos-ports/recipes-webos/browser-adapter/browser-adapter.bb'
p20
sS'srcrev'
p21
(lp22
S'7c4cb757dcaac08a18e0ea1699e2c748710bdbc5'
p23
asS'pn'
p24
S'browser-adapter'
p25
s.(dp0
S'pr'
p1
S'r0'
p2
sS'packagelist'
p3
(lp4
S'luna-sysmgr-dbg'
p5
aS'luna-sysmgr-staticdev'
p6
aS'luna-sysmgr-dev'
p7
aS'luna-sysmgr-doc'
p8
aS'luna-sysmgr-locale'
p9
aS'luna-sysmgr'
p10
asS'pv'
p11
S'3.0.0-3+wop+gitrAUTOINC+44dbcb5bc247da0ce201adc98259896c88774ffa'
p12
sS'depends'
p13
S'cjson freetype libpbnjson librolegen libwebos-gui luna-prefs luna-service2 luna-sysmgr-common luna-sysmgr-ipc luna-sysmgr-ipc-messages luna-webkit-api nyx-lib openssl pmloglib qmake-webos-native qt-palm-plugin qt4-webos serviceinstaller sqlite3 virtual/arm-webos-linux-gnueabi-compilerlibs virtual/arm-webos-linux-gnueabi-gcc virtual/libc'
p14
sS'src_uri'
p15
S'git://github.com/webOS-ports/luna-sysmgr;branch=webOS-ports/master'
p16
sS'pe'
p17
S'0'
p18
sS'bbfile'
p19
S'/home/jenkins/webos-ports/workspace/webos-ports/meta-webos-ports/recipes-webos/luna-sysmgr/luna-sysmgr.bb'
p20
sS'srcrev'
p21
(lp22
S'44dbcb5bc247da0ce201adc98259896c88774ffa'
p23
asS'pn'
p24
S'luna-sysmgr'
p25
s.(dp0
S'pr'
p1
S'r0'
p2
sS'packagelist'
p3
(lp4
S'webappmanager-dbg'
p5
aS'webappmanager-staticdev'
p6
aS'webappmanager-dev'
p7
aS'webappmanager-doc'
p8
aS'webappmanager-locale'
p9
aS'webappmanager'
p10
asS'pv'
p11
S'3.0.0-3+wop+gitrAUTOINC+811afcf9ba31f7c058a49fa29ed3087c51ebc3a1'
p12
sS'depends'
p13
S'cjson freetype libpbnjson librolegen luna-prefs luna-service2 luna-sysmgr-common luna-sysmgr-ipc luna-sysmgr-ipc-messages luna-webkit-api npapi-headers nyx-lib openssl qmake-webos-native qt-webos-plugin qt4-webos serviceinstaller sqlite3 virtual/arm-webos-linux-gnueabi-compilerlibs virtual/arm-webos-linux-gnueabi-gcc virtual/libc webkit-webos'
p14
sS'src_uri'
p15
S'git://github.com/webOS-ports/webappmanager;branch=webOS-ports/master'
p16
sS'pe'
p17
S'0'
p18
sS'bbfile'
p19
S'/home/jenkins/webos-ports/workspace/webos-ports/meta-webos-ports/recipes-webos/webappmanager/webappmanager.bb'
p20
sS'srcrev'
p21
(lp22
S'811afcf9ba31f7c058a49fa29ed3087c51ebc3a1'
p23
asS'pn'
p24
S'webappmanager'
p25
s.(dp0
S'pr'
p1
S'r0'
p2
sS'packagelist'
p3
(lp4
S'keyboard-efigs-dbg'
p5
aS'keyboard-efigs-staticdev'
p6
aS'keyboard-efigs-dev'
p7
aS'keyboard-efigs-doc'
p8
aS'keyboard-efigs-locale'
p9
aS'keyboard-efigs'
p10
asS'pv'
p11
S'3.0.0-2+wop+gitrAUTOINC+fc69babb308f11ee3f42334af393f51a2d9be198'
p12
sS'depends'
p13
S'glib-2.0 libpbnjson luna-prefs luna-service2 luna-webkit-api pkgconfig-native qmake-webos-native qt4-webos virtual/arm-webos-linux-gnueabi-compilerlibs virtual/arm-webos-linux-gnueabi-gcc virtual/libc'
p14
sS'src_uri'
p15
S'git://github.com/webOS-ports/keyboard-efigs;branch=webOS-ports/master'
p16
sS'pe'
p17
S'0'
p18
sS'bbfile'
p19
S'/home/jenkins/webos-ports/workspace/webos-ports/meta-webos-ports/recipes-webos/keyboard-efigs/keyboard-efigs.bb'
p20
sS'srcrev'
p21
(lp22
S'fc69babb308f11ee3f42334af393f51a2d9be198'
p23
asS'pn'
p24
S'keyboard-efigs'
p25
s.(dp0
S'pr'
p1
S'r0'
p2
sS'packagelist'
p3
(lp4
S'libpbnjson-dbg'
p5
aS'libpbnjson-staticdev'
p6
aS'libpbnjson-dev'
p7
aS'libpbnjson-doc'
p8
aS'libpbnjson-locale'
p9
aS'libpbnjson'
p10
asS'pv'
p11
S'1.3.0-13'
p12
sS'depends'
p13
S'autoconf-native automake-native cmake-modules-webos-native cmake-native gnu-config-native libtool-cross libtool-native pkgconfig-native virtual/arm-webos-linux-gnueabi-compilerlibs virtual/arm-webos-linux-gnueabi-gcc virtual/libc yajl'
p14
sS'src_uri'
p15
S'git://github.com/openwebos/libpbnjson'
p16
sS'pe'
p17
S'0'
p18
sS'bbfile'
p19
S'/home/jenkins/webos-ports/workspace/webos-ports/meta-webos-ports/recipes-webos/libpbnjson/libpbnjson.bb'
p20
sS'srcrev'
p21
(lp22
S'42c1559c878d1c4758794c86415739bcf7e4b17e'
p23
asS'pn'
p24
S'libpbnjson'
p25
s.(dp0
S'pr'
p1
S'r2.0'
p2
sS'packagelist'
p3
(lp4
S'qtbase-fonts'
p5
aS'qtbase-fonts-ttf-vera'
p6
aS'qtbase-fonts-ttf-dejavu'
p7
aS'qtbase-fonts-pfa'
p8
aS'qtbase-fonts-pfb'
p9
aS'qtbase-fonts-qpf'
p10
aS'qtbase-qmlplugins-dbg'
p11
aS'qtbase-tools-dbg'
p12
aS'qtbase-plugins-dbg'
p13
aS'qtbase-qmlplugins'
p14
aS'qtbase-tools'
p15
aS'qtbase-plugins'
p16
aS'qtbase-mkspecs'
p17
aS'qtbase-examples-dev'
p18
aS'qtbase-examples-staticdev'
p19
aS'qtbase-examples-dbg'
p20
aS'qtbase-examples'
p21
aS'qtbase-dbg'
p22
aS'qtbase-staticdev'
p23
aS'qtbase-dev'
p24
aS'qtbase-doc'
p25
aS'qtbase-locale'
p26
aS'qtbase'
p27
asS'pv'
p28
S'5.0.2'
p29
sS'depends'
p30
S'freetype glib-2.0 icu jpeg libpng openssl qtbase-native qtbase-native udev virtual/arm-webos-linux-gnueabi-compilerlibs virtual/arm-webos-linux-gnueabi-gcc virtual/egl virtual/libc virtual/libgles2 zlib'
p31
sS'src_uri'
p32
S'      http://releases.qt-project.org/qt5/5.0.2/submodules/qtbase-opensource-src-5.0.2.tar.xz       file://0001-Add-linux-oe-g-platform.patch     file://0002-qlibraryinfo-allow-to-set-qt.conf-from-the-outside-u.patch     file://0003-Add-external-hostbindir-option.patch     file://0004-qt_functions-temporary-remove-isEmpty-check.patch     file://0005-qmake-is-already-built-in-qtbase-native.patch     file://0006-Allow-building-a-separate-qmake-for-the-target.patch     file://0007-configureapp-Prefix-default-LIBDIRS-and-INCDIRS-with.patch     file://0008-qt_module-Fix-pkgconfig-replacement.patch     file://0009-qt_module-Fix-paths-in-.prl-files.patch     file://0010-wayland-scanner-disable-silent-rules.patch     file://0011-configure-don-t-export-SYSTEM_VARIABLES-to-.qmake.va.patch     file://0012-configure.prf-Allow-to-add-extra-arguments-to-make.patch     file://0013-Disable-mkv8snapshot.patch     file://0014-enables-tslib-device-to-be-read-from-env-variable.patch     file://0015-qtbase-allow-build-of-examples.patch     file://0018-QOpenGLPaintDevice-sub-area-support.patch     file://0019-Fix-FBO-restoring-in-QOpenGLTextureGlyphCache.patch     file://0020-Use-BGRA-extension-in-bindTexture.patch       file://0016-Allow-tslib-to-be-specified-at-configure-time.patch     file://0017-Rename-qAbs-Function-for-timeval.patch '
p33
sS'pe'
p34
S'0'
p35
sS'bbfile'
p36
S'/home/jenkins/webos-ports/workspace/webos-ports/meta-qt5/recipes-qt/qt5/qtbase_5.0.2.bb'
p37
sS'srcrev'
p38
(lp39
sS'pn'
p40
S'qtbase'
p41
s.(dp0
S'pr'
p1
S'r0'
p2
sS'packagelist'
p3
(lp4
S'pmloglib-dbg'
p5
aS'pmloglib-staticdev'
p6
aS'pmloglib-dev'
p7
aS'pmloglib-doc'
p8
aS'pmloglib-locale'
p9
aS'pmloglib'
p10
asS'pv'
p11
S'3.0.0-30'
p12
sS'depends'
p13
S'autoconf-native automake-native cmake-modules-webos-native cmake-native glib-2.0 gnu-config-native libpbnjson libtool-cross libtool-native pkgconfig-native virtual/arm-webos-linux-gnueabi-compilerlibs virtual/arm-webos-linux-gnueabi-gcc virtual/libc'
p14
sS'src_uri'
p15
S'git://github.com/openwebos/pmloglib'
p16
sS'pe'
p17
S'0'
p18
sS'bbfile'
p19
S'/home/jenkins/webos-ports/workspace/webos-ports/meta-webos-ports/recipes-webos/pmloglib/pmloglib.bb'
p20
sS'srcrev'
p21
(lp22
S'9ddcaf8601403f9fb048de4db3f7eca3bf506577'
p23
asS'pn'
p24
S'pmloglib'
p25
s.(dp0
S'pr'
p1
S'r0'
p2
sS'packagelist'
p3
(lp4
S'luna-service2-dbg'
p5
aS'luna-service2-staticdev'
p6
aS'luna-service2-dev'
p7
aS'luna-service2-doc'
p8
aS'luna-service2-locale'
p9
aS'luna-service2'
p10
asS'pv'
p11
S'3.3.0-150'
p12
sS'depends'
p13
S'autoconf-native automake-native cjson cmake-modules-webos-native cmake-native glib-2.0 gnu-config-native libtool-cross libtool-native pkgconfig-native pmloglib virtual/arm-webos-linux-gnueabi-compilerlibs virtual/arm-webos-linux-gnueabi-gcc virtual/libc'
p14
sS'src_uri'
p15
S'git://github.com/openwebos/luna-service2'
p16
sS'pe'
p17
S'0'
p18
sS'bbfile'
p19
S'/home/jenkins/webos-ports/workspace/webos-ports/meta-webos-ports/recipes-webos/luna-service2/luna-service2.bb'
p20
sS'srcrev'
p21
(lp22
S'dbe4ae6ee6ec907ca7cfbc4966587476cb657baf'
p23
asS'pn'
p24
S'luna-service2'
p25
s.(dp0
S'pr'
p1
S'r0.0'
p2
sS'packagelist'
p3
(lp4
S'qtxmlpatterns-qmlplugins-dbg'
p5
aS'qtxmlpatterns-tools-dbg'
p6
aS'qtxmlpatterns-plugins-dbg'
p7
aS'qtxmlpatterns-qmlplugins'
p8
aS'qtxmlpatterns-tools'
p9
aS'qtxmlpatterns-plugins'
p10
aS'qtxmlpatterns-mkspecs'
p11
aS'qtxmlpatterns-examples-dev'
p12
aS'qtxmlpatterns-examples-staticdev'
p13
aS'qtxmlpatterns-examples-dbg'
p14
aS'qtxmlpatterns-examples'
p15
aS'qtxmlpatterns-dbg'
p16
aS'qtxmlpatterns-staticdev'
p17
aS'qtxmlpatterns-dev'
p18
aS'qtxmlpatterns-doc'
p19
aS'qtxmlpatterns-locale'
p20
aS'qtxmlpatterns'
p21
asS'pv'
p22
S'5.0.2'
p23
sS'depends'
p24
S'qtbase qtbase-native virtual/arm-webos-linux-gnueabi-compilerlibs virtual/arm-webos-linux-gnueabi-gcc virtual/libc'
p25
sS'src_uri'
p26
S'      http://releases.qt-project.org/qt5/5.0.2/submodules/qtxmlpatterns-opensource-src-5.0.2.tar.xz '
p27
sS'pe'
p28
S'0'
p29
sS'bbfile'
p30
S'/home/jenkins/webos-ports/workspace/webos-ports/meta-qt5/recipes-qt/qt5/qtxmlpatterns_5.0.2.bb'
p31
sS'srcrev'
p32
(lp33
sS'pn'
p34
S'qtxmlpatterns'
p35
s.(dp0
S'pr'
p1
S'r0.0'
p2
sS'packagelist'
p3
(lp4
S'qtsvg-qmlplugins-dbg'
p5
aS'qtsvg-tools-dbg'
p6
aS'qtsvg-plugins-dbg'
p7
aS'qtsvg-qmlplugins'
p8
aS'qtsvg-tools'
p9
aS'qtsvg-plugins'
p10
aS'qtsvg-mkspecs'
p11
aS'qtsvg-examples-dev'
p12
aS'qtsvg-examples-staticdev'
p13
aS'qtsvg-examples-dbg'
p14
aS'qtsvg-examples'
p15
aS'qtsvg-dbg'
p16
aS'qtsvg-staticdev'
p17
aS'qtsvg-dev'
p18
aS'qtsvg-doc'
p19
aS'qtsvg-locale'
p20
aS'qtsvg'
p21
asS'pv'
p22
S'5.0.2'
p23
sS'depends'
p24
S'qtbase qtbase-native virtual/arm-webos-linux-gnueabi-compilerlibs virtual/arm-webos-linux-gnueabi-gcc virtual/libc'
p25
sS'src_uri'
p26
S'      http://releases.qt-project.org/qt5/5.0.2/submodules/qtsvg-opensource-src-5.0.2.tar.xz '
p27
sS'pe'
p28
S'0'
p29
sS'bbfile'
p30
S'/home/jenkins/webos-ports/workspace/webos-ports/meta-qt5/recipes-qt/qt5/qtsvg_5.0.2.bb'
p31
sS'srcrev'
p32
(lp33
sS'pn'
p34
S'qtsvg'
p35
s.(dp0
S'pr'
p1
S'r0.0'
p2
sS'packagelist'
p3
(lp4
S'qtjsbackend-qmlplugins-dbg'
p5
aS'qtjsbackend-tools-dbg'
p6
aS'qtjsbackend-plugins-dbg'
p7
aS'qtjsbackend-qmlplugins'
p8
aS'qtjsbackend-tools'
p9
aS'qtjsbackend-plugins'
p10
aS'qtjsbackend-mkspecs'
p11
aS'qtjsbackend-examples-dev'
p12
aS'qtjsbackend-examples-staticdev'
p13
aS'qtjsbackend-examples-dbg'
p14
aS'qtjsbackend-examples'
p15
aS'qtjsbackend-dbg'
p16
aS'qtjsbackend-staticdev'
p17
aS'qtjsbackend-dev'
p18
aS'qtjsbackend-doc'
p19
aS'qtjsbackend-locale'
p20
aS'qtjsbackend'
p21
asS'pv'
p22
S'5.0.2'
p23
sS'depends'
p24
S'qtbase qtbase-native qtjsbackend-native virtual/arm-webos-linux-gnueabi-compilerlibs virtual/arm-webos-linux-gnueabi-gcc virtual/libc'
p25
sS'src_uri'
p26
S'      http://releases.qt-project.org/qt5/5.0.2/submodules/qtjsbackend-opensource-src-5.0.2.tar.xz       file://0002-v8.pro-respect-external-host-bindir-when-set.patch       file://0003-V8-Cleanup-hardfp-ABI-detection.-This-work-was-trigg.patch '
p27
sS'pe'
p28
S'0'
p29
sS'bbfile'
p30
S'/home/jenkins/webos-ports/workspace/webos-ports/meta-qt5/recipes-qt/qt5/qtjsbackend_5.0.2.bb'
p31
sS'srcrev'
p32
(lp33
sS'pn'
p34
S'qtjsbackend'
p35
s.(dp0
S'pr'
p1
S'r0.0'
p2
sS'packagelist'
p3
(lp4
S'qtdeclarative-qmlplugins-dbg'
p5
aS'qtdeclarative-tools-dbg'
p6
aS'qtdeclarative-plugins-dbg'
p7
aS'qtdeclarative-qmlplugins'
p8
aS'qtdeclarative-tools'
p9
aS'qtdeclarative-plugins'
p10
aS'qtdeclarative-mkspecs'
p11
aS'qtdeclarative-examples-dev'
p12
aS'qtdeclarative-examples-staticdev'
p13
aS'qtdeclarative-examples-dbg'
p14
aS'qtdeclarative-examples'
p15
aS'qtdeclarative-dbg'
p16
aS'qtdeclarative-staticdev'
p17
aS'qtdeclarative-dev'
p18
aS'qtdeclarative-doc'
p19
aS'qtdeclarative-locale'
p20
aS'qtdeclarative'
p21
asS'pv'
p22
S'5.0.2'
p23
sS'depends'
p24
S'qtbase-native qtjsbackend qtsvg qtxmlpatterns virtual/arm-webos-linux-gnueabi-compilerlibs virtual/arm-webos-linux-gnueabi-gcc virtual/libc'
p25
sS'src_uri'
p26
S'      http://releases.qt-project.org/qt5/5.0.2/submodules/qtdeclarative-opensource-src-5.0.2.tar.xz       file://0001-qmltestexample-fix-link.patch     file://0002-Fix-displacement-transition-bug-for-horizontal-case.patch     file://0003-Fix-wrong-calculation-of-viewPort-for-transitions.patch     file://0004-Fix-null-pointer-access-in-QQuickVisualDataModelPriv.patch     file://0005-Avoid-swizzling-on-OpenGL-ES-when-possible.patch '
p27
sS'pe'
p28
S'0'
p29
sS'bbfile'
p30
S'/home/jenkins/webos-ports/workspace/webos-ports/meta-qt5/recipes-qt/qt5/qtdeclarative_5.0.2.bb'
p31
sS'srcrev'
p32
(lp33
sS'pn'
p34
S'qtdeclarative'
p35
s.(dp0
S'pr'
p1
S'r0'
p2
sS'packagelist'
p3
(lp4
S'pmstatemachineengine-dbg'
p5
aS'pmstatemachineengine-staticdev'
p6
aS'pmstatemachineengine-dev'
p7
aS'pmstatemachineengine-doc'
p8
aS'pmstatemachineengine-locale'
p9
aS'pmstatemachineengine'
p10
asS'pv'
p11
S'2.0.0-13'
p12
sS'depends'
p13
S'autoconf-native automake-native cmake-modules-webos-native cmake-native gnu-config-native libtool-cross libtool-native pkgconfig-native pmloglib virtual/arm-webos-linux-gnueabi-compilerlibs virtual/arm-webos-linux-gnueabi-gcc virtual/libc'
p14
sS'src_uri'
p15
S'git://github.com/openwebos/pmstatemachineengine'
p16
sS'pe'
p17
S'0'
p18
sS'bbfile'
p19
S'/home/jenkins/webos-ports/workspace/webos-ports/meta-webos-ports/recipes-webos/pmstatemachineengine/pmstatemachineengine.bb'
p20
sS'srcrev'
p21
(lp22
S'88e0b6129e6e7ee939e3622fd84537694df04bde'
p23
asS'pn'
p24
S'pmstatemachineengine'
p25
s.(dp0
S'pr'
p1
S'r0'
p2
sS'packagelist'
p3
(lp4
S'db8-dbg'
p5
aS'db8-staticdev'
p6
aS'db8-dev'
p7
aS'db8-doc'
p8
aS'db8-locale'
p9
aS'db8'
p10
asS'pv'
p11
S'2.0.0-72'
p12
sS'depends'
p13
S'autoconf-native automake-native cmake-modules-webos-native cmake-native curl glib-2.0 gnu-config-native icu jemalloc leveldb libtool-cross libtool-native luna-service2 pkgconfig-native pmloglib virtual/arm-webos-linux-gnueabi-compilerlibs virtual/arm-webos-linux-gnueabi-gcc virtual/libc'
p14
sS'src_uri'
p15
S'git://github.com/openwebos/db8'
p16
sS'pe'
p17
S'0'
p18
sS'bbfile'
p19
S'/home/jenkins/webos-ports/workspace/webos-ports/meta-webos-ports/recipes-webos/db8/db8.bb'
p20
sS'srcrev'
p21
(lp22
S'4d63046617ea9a1b3167c47907cd387ed05ce2df'
p23
asS'pn'
p24
S'db8'
p25
s.(dp0
S'pr'
p1
S'r0'
p2
sS'packagelist'
p3
(lp4
S'libpalmsocket-dbg'
p5
aS'libpalmsocket-staticdev'
p6
aS'libpalmsocket-dev'
p7
aS'libpalmsocket-doc'
p8
aS'libpalmsocket-locale'
p9
aS'libpalmsocket'
p10
asS'pv'
p11
S'2.0.0-30'
p12
sS'depends'
p13
S'autoconf-native automake-native c-ares cmake-modules-webos-native cmake-native glib-2.0 gnu-config-native libtool-cross libtool-native openssl pkgconfig-native pmloglib pmstatemachineengine virtual/arm-webos-linux-gnueabi-compilerlibs virtual/arm-webos-linux-gnueabi-gcc virtual/libc'
p14
sS'src_uri'
p15
S'git://github.com/openwebos/libpalmsocket'
p16
sS'pe'
p17
S'0'
p18
sS'bbfile'
p19
S'/home/jenkins/webos-ports/workspace/webos-ports/meta-webos-ports/recipes-webos/libpalmsocket/libpalmsocket.bb'
p20
sS'srcrev'
p21
(lp22
S'd2c9c3ed769552c4852d7a8f962408720af90cf4'
p23
asS'pn'
p24
S'libpalmsocket'
p25
s.(dp0
S'pr'
p1
S'r0'
p2
sS'packagelist'
p3
(lp4
S'luna-prefs-dbg'
p5
aS'luna-prefs-staticdev'
p6
aS'luna-prefs-dev'
p7
aS'luna-prefs-doc'
p8
aS'luna-prefs-locale'
p9
aS'luna-prefs'
p10
asS'pv'
p11
S'2.0.0-1.01'
p12
sS'depends'
p13
S'autoconf-native automake-native cjson cmake-modules-webos-native cmake-native glib-2.0 gnu-config-native libtool-cross libtool-native luna-service2 pkgconfig-native sqlite3 virtual/arm-webos-linux-gnueabi-compilerlibs virtual/arm-webos-linux-gnueabi-gcc virtual/libc'
p14
sS'src_uri'
p15
S'git://github.com/openwebos/luna-prefs'
p16
sS'pe'
p17
S'0'
p18
sS'bbfile'
p19
S'/home/jenkins/webos-ports/workspace/webos-ports/meta-webos-ports/recipes-webos/luna-prefs/luna-prefs.bb'
p20
sS'srcrev'
p21
(lp22
S'1b8182fe4373d29fa728345825c8988db138b23b'
p23
asS'pn'
p24
S'luna-prefs'
p25
s.(dp0
S'pr'
p1
S'r0.0'
p2
sS'packagelist'
p3
(lp4
S'qtjsondb-qmlplugins-dbg'
p5
aS'qtjsondb-tools-dbg'
p6
aS'qtjsondb-plugins-dbg'
p7
aS'qtjsondb-qmlplugins'
p8
aS'qtjsondb-tools'
p9
aS'qtjsondb-plugins'
p10
aS'qtjsondb-mkspecs'
p11
aS'qtjsondb-examples-dev'
p12
aS'qtjsondb-examples-staticdev'
p13
aS'qtjsondb-examples-dbg'
p14
aS'qtjsondb-examples'
p15
aS'qtjsondb-dbg'
p16
aS'qtjsondb-staticdev'
p17
aS'qtjsondb-dev'
p18
aS'qtjsondb-doc'
p19
aS'qtjsondb-locale'
p20
aS'qtjsondb'
p21
asS'pv'
p22
S'4.999+5.0.0-beta1+gitAUTOINC+c7c1e61bb5beddc3f4502548fd9ee498f1534e67'
p23
sS'depends'
p24
S'icu qtbase-native qtdeclarative virtual/arm-webos-linux-gnueabi-compilerlibs virtual/arm-webos-linux-gnueabi-gcc virtual/libc'
p25
sS'src_uri'
p26
S'      git://qt.gitorious.org/qt/qtjsondb.git;branch=master '
p27
sS'pe'
p28
S'0'
p29
sS'bbfile'
p30
S'/home/jenkins/webos-ports/workspace/webos-ports/meta-qt5/recipes-qt/qt5/qtjsondb_git.bb'
p31
sS'srcrev'
p32
(lp33
S'c7c1e61bb5beddc3f4502548fd9ee498f1534e67'
p34
asS'pn'
p35
S'qtjsondb'
p36
s.(dp0
S'pr'
p1
S'r1.0'
p2
sS'packagelist'
p3
(lp4
S'qt3d-qmlplugins-dbg'
p5
aS'qt3d-tools-dbg'
p6
aS'qt3d-plugins-dbg'
p7
aS'qt3d-qmlplugins'
p8
aS'qt3d-tools'
p9
aS'qt3d-plugins'
p10
aS'qt3d-mkspecs'
p11
aS'qt3d-examples-dev'
p12
aS'qt3d-examples-staticdev'
p13
aS'qt3d-examples-dbg'
p14
aS'qt3d-examples'
p15
aS'qt3d-dbg'
p16
aS'qt3d-staticdev'
p17
aS'qt3d-dev'
p18
aS'qt3d-doc'
p19
aS'qt3d-locale'
p20
aS'qt3d'
p21
asS'pv'
p22
S'4.999+5.0.0-beta1+gitAUTOINC+0158ce783a61bac3e4f4ff619b0601daf9174ce6'
p23
sS'depends'
p24
S'qtbase-native qtdeclarative virtual/arm-webos-linux-gnueabi-compilerlibs virtual/arm-webos-linux-gnueabi-gcc virtual/libc'
p25
sS'src_uri'
p26
S'      git://qt.gitorious.org/qt/qt3d.git;branch=master '
p27
sS'pe'
p28
S'0'
p29
sS'bbfile'
p30
S'/home/jenkins/webos-ports/workspace/webos-ports/meta-qt5/recipes-qt/qt5/qt3d_git.bb'
p31
sS'srcrev'
p32
(lp33
S'0158ce783a61bac3e4f4ff619b0601daf9174ce6'
p34
asS'pn'
p35
S'qt3d'
p36
s.(dp0
S'pr'
p1
S'r0'
p2
sS'packagelist'
p3
(lp4
S'serviceinstaller-dbg'
p5
aS'serviceinstaller-staticdev'
p6
aS'serviceinstaller-dev'
p7
aS'serviceinstaller-doc'
p8
aS'serviceinstaller-locale'
p9
aS'serviceinstaller'
p10
asS'pv'
p11
S'2.0.0-1.01'
p12
sS'depends'
p13
S'autoconf-native automake-native cmake-modules-webos-native cmake-native glib-2.0 gnu-config-native libpbnjson librolegen libtool-cross libtool-native luna-service2 virtual/arm-webos-linux-gnueabi-compilerlibs virtual/arm-webos-linux-gnueabi-gcc virtual/libc'
p14
sS'src_uri'
p15
S'git://github.com/openwebos/serviceinstaller file://0001-When-running-install-make-target-install-header-file.patch'
p16
sS'pe'
p17
S'0'
p18
sS'bbfile'
p19
S'/home/jenkins/webos-ports/workspace/webos-ports/meta-webos-ports/recipes-webos/serviceinstaller/serviceinstaller.bb'
p20
sS'srcrev'
p21
(lp22
S'82d8ae7e930f5f72935cb807b773be52ca817a92'
p23
asS'pn'
p24
S'serviceinstaller'
p25
s.(dp0
S'pr'
p1
S'r0.0'
p2
sS'packagelist'
p3
(lp4
S'qtsensors-qmlplugins-dbg'
p5
aS'qtsensors-tools-dbg'
p6
aS'qtsensors-plugins-dbg'
p7
aS'qtsensors-qmlplugins'
p8
aS'qtsensors-tools'
p9
aS'qtsensors-plugins'
p10
aS'qtsensors-mkspecs'
p11
aS'qtsensors-examples-dev'
p12
aS'qtsensors-examples-staticdev'
p13
aS'qtsensors-examples-dbg'
p14
aS'qtsensors-examples'
p15
aS'qtsensors-dbg'
p16
aS'qtsensors-staticdev'
p17
aS'qtsensors-dev'
p18
aS'qtsensors-doc'
p19
aS'qtsensors-locale'
p20
aS'qtsensors'
p21
asS'pv'
p22
S'4.999+5.0.0-beta1+gitAUTOINC+a8bb2b1720372b79b1e7c03692252a3d6f0a7c0f'
p23
sS'depends'
p24
S'qtbase qtbase-native qtdeclarative virtual/arm-webos-linux-gnueabi-compilerlibs virtual/arm-webos-linux-gnueabi-gcc virtual/libc'
p25
sS'src_uri'
p26
S'      git://qt.gitorious.org/qt/qtsensors.git;branch=stable '
p27
sS'pe'
p28
S'0'
p29
sS'bbfile'
p30
S'/home/jenkins/webos-ports/workspace/webos-ports/meta-qt5/recipes-qt/qt5/qtsensors_git.bb'
p31
sS'srcrev'
p32
(lp33
S'a8bb2b1720372b79b1e7c03692252a3d6f0a7c0f'
p34
asS'pn'
p35
S'qtsensors'
p36
s.(dp0
S'pr'
p1
S'r0.0'
p2
sS'packagelist'
p3
(lp4
S'qtlocation-qmlplugins-dbg'
p5
aS'qtlocation-tools-dbg'
p6
aS'qtlocation-plugins-dbg'
p7
aS'qtlocation-qmlplugins'
p8
aS'qtlocation-tools'
p9
aS'qtlocation-plugins'
p10
aS'qtlocation-mkspecs'
p11
aS'qtlocation-examples-dev'
p12
aS'qtlocation-examples-staticdev'
p13
aS'qtlocation-examples-dbg'
p14
aS'qtlocation-examples'
p15
aS'qtlocation-dbg'
p16
aS'qtlocation-staticdev'
p17
aS'qtlocation-dev'
p18
aS'qtlocation-doc'
p19
aS'qtlocation-locale'
p20
aS'qtlocation'
p21
asS'pv'
p22
S'4.999+5.0.0-beta1+gitAUTOINC+f28408346243cf090326f4738fd838219c21e00f'
p23
sS'depends'
p24
S'qt3d qtbase qtbase-native qtjsondb virtual/arm-webos-linux-gnueabi-compilerlibs virtual/arm-webos-linux-gnueabi-gcc virtual/libc'
p25
sS'src_uri'
p26
S'      git://qt.gitorious.org/qt/qtlocation.git;branch=master '
p27
sS'pe'
p28
S'0'
p29
sS'bbfile'
p30
S'/home/jenkins/webos-ports/workspace/webos-ports/meta-qt5/recipes-qt/qt5/qtlocation_git.bb'
p31
sS'srcrev'
p32
(lp33
S'f28408346243cf090326f4738fd838219c21e00f'
p34
asS'pn'
p35
S'qtlocation'
p36
s.(dp0
S'pr'
p1
S'r0'
p2
sS'packagelist'
p3
(lp4
S'webkit-webos-dbg'
p5
aS'webkit-webos-staticdev'
p6
aS'webkit-webos-dev'
p7
aS'webkit-webos-doc'
p8
aS'webkit-webos-locale'
p9
aS'webkit-webos'
p10
asS'pv'
p11
S'1.3-0.54'
p12
sS'depends'
p13
S'gperf-native luna-service2 pkgconfig-native qmake-webos-native qt4-webos sqlite3 virtual/arm-webos-linux-gnueabi-compilerlibs virtual/arm-webos-linux-gnueabi-gcc virtual/libc'
p14
sS'src_uri'
p15
S'https://github.com/downloads/isis-project/WebKit/WebKit_0.54s.zip   file://0001-Build-fix-with-newer-bison-2.6.patch file://remove-empty-soname-arg.patch file://fullscreenvideowidget-remove-cursor-use.patch'
p16
sS'pe'
p17
S'0'
p18
sS'bbfile'
p19
S'/home/jenkins/webos-ports/workspace/webos-ports/meta-webos-ports/recipes-webos/webkit/webkit-webos.bb'
p20
sS'srcrev'
p21
(lp22
sS'pn'
p23
S'webkit-webos'
p24
s.(dp0
S'pr'
p1
S'r0'
p2
sS'packagelist'
p3
(lp4
S'mojomail-common-dbg'
p5
aS'mojomail-common-staticdev'
p6
aS'mojomail-common-dev'
p7
aS'mojomail-common-doc'
p8
aS'mojomail-common-locale'
p9
aS'mojomail-common'
p10
asS'pv'
p11
S'2.0.0-99'
p12
sS'depends'
p13
S'autoconf-native automake-native boost cmake-modules-webos-native cmake-native curl db8 gnu-config-native icu jemalloc libpalmsocket libsandbox libtool-cross libtool-native pkgconfig-native pmloglib virtual/arm-webos-linux-gnueabi-compilerlibs virtual/arm-webos-linux-gnueabi-gcc virtual/libc'
p14
sS'src_uri'
p15
S'git://github.com/openwebos/mojomail'
p16
sS'pe'
p17
S'0'
p18
sS'bbfile'
p19
S'/home/jenkins/webos-ports/workspace/webos-ports/meta-webos-ports/recipes-webos/mojomail/mojomail-common.bb'
p20
sS'srcrev'
p21
(lp22
S'9a4316e6bcb76445673d48a310b0bd446b280f94'
p23
asS'pn'
p24
S'mojomail-common'
p25
s.(dp0
S'pr'
p1
S'r0.0'
p2
sS'packagelist'
p3
(lp4
S'qtwebkit-qmlplugins-dbg'
p5
aS'qtwebkit-tools-dbg'
p6
aS'qtwebkit-plugins-dbg'
p7
aS'qtwebkit-qmlplugins'
p8
aS'qtwebkit-tools'
p9
aS'qtwebkit-plugins'
p10
aS'qtwebkit-mkspecs'
p11
aS'qtwebkit-examples-dev'
p12
aS'qtwebkit-examples-staticdev'
p13
aS'qtwebkit-examples-dbg'
p14
aS'qtwebkit-examples'
p15
aS'qtwebkit-dbg'
p16
aS'qtwebkit-staticdev'
p17
aS'qtwebkit-dev'
p18
aS'qtwebkit-doc'
p19
aS'qtwebkit-locale'
p20
aS'qtwebkit'
p21
asS'pv'
p22
S'5.0.2'
p23
sS'depends'
p24
S'icu qtbase-native qtdeclarative qtlocation qtsensors ruby-native sqlite3 virtual/arm-webos-linux-gnueabi-compilerlibs virtual/arm-webos-linux-gnueabi-gcc virtual/libc'
p25
sS'src_uri'
p26
S'      http://releases.qt-project.org/qt5/5.0.2/submodules/qtwebkit-opensource-src-5.0.2.tar.xz '
p27
sS'pe'
p28
S'0'
p29
sS'bbfile'
p30
S'/home/jenkins/webos-ports/workspace/webos-ports/meta-qt5/recipes-qt/qt5/qtwebkit_5.0.2.bb'
p31
sS'srcrev'
p32
(lp33
sS'pn'
p34
S'qtwebkit'
p35
s.(dp0
S'pr'
p1
S'r0'
p2
sS'packagelist'
p3
(lp4
S'libsoup-2.4-dbg'
p5
aS'libsoup-2.4-staticdev'
p6
aS'libsoup-2.4-dev'
p7
aS'libsoup-2.4-doc'
p8
aS'libsoup-2.4-locale'
p9
aS'libsoup-2.4'
p10
asS'pv'
p11
S'2.40.3'
p12
sS'depends'
p13
S'autoconf-native automake-native glib-2.0 gnu-config-native gnutls libproxy libtool-cross libtool-native libxml2 pkgconfig-native virtual/arm-webos-linux-gnueabi-compilerlibs virtual/arm-webos-linux-gnueabi-gcc virtual/libc'
p14
sS'src_uri'
p15
S'http://ftp.gnome.org/pub/GNOME/sources/libsoup/2.40/libsoup-2.40.3.tar.xz'
p16
sS'pe'
p17
S'0'
p18
sS'bbfile'
p19
S'/home/jenkins/webos-ports/workspace/webos-ports/meta-webos-ports/recipes-support/libsoup/libsoup-2.4_2.40.3.bb'
p20
sS'srcrev'
p21
(lp22
sS'pn'
p23
S'libsoup-2.4'
p24
s.(dp0
S'pr'
p1
S'r0'
p2
sS'packagelist'
p3
(lp4
S'webkit-supplemental-dbg'
p5
aS'webkit-supplemental-staticdev'
p6
aS'webkit-supplemental-dev'
p7
aS'webkit-supplemental-doc'
p8
aS'webkit-supplemental-locale'
p9
aS'webkit-supplemental'
p10
asS'pv'
p11
S'2.0.0-0.5'
p12
sS'depends'
p13
S'pkgconfig-native qmake-webos-native qt4-webos virtual/arm-webos-linux-gnueabi-compilerlibs virtual/arm-webos-linux-gnueabi-gcc virtual/libc webkit-webos'
p14
sS'src_uri'
p15
S'git://github.com/isis-project/WebKitSupplemental'
p16
sS'pe'
p17
S'0'
p18
sS'bbfile'
p19
S'/home/jenkins/webos-ports/workspace/webos-ports/meta-webos-ports/recipes-webos/webkit-supplemental/webkit-supplemental.bb'
p20
sS'srcrev'
p21
(lp22
S'70fb05fd340ab342c5132dc8bfa174dbe6c9d330'
p23
asS'pn'
p24
S'webkit-supplemental'
p25
s.(dp0
S'pr'
p1
S'r0'
p2
sS'packagelist'
p3
(lp4
S'powerd-dbg'
p5
aS'powerd-staticdev'
p6
aS'powerd-dev'
p7
aS'powerd-doc'
p8
aS'powerd-locale'
p9
aS'powerd'
p10
asS'pv'
p11
S'4.0.0-19'
p12
sS'depends'
p13
S'autoconf-native automake-native cjson cmake-modules-webos-native cmake-native glib-2.0 gnu-config-native libtool-cross libtool-native luna-service2 nyx-lib pkgconfig-native virtual/arm-webos-linux-gnueabi-compilerlibs virtual/arm-webos-linux-gnueabi-gcc virtual/libc'
p14
sS'src_uri'
p15
S'git://github.com/openwebos/powerd'
p16
sS'pe'
p17
S'0'
p18
sS'bbfile'
p19
S'/home/jenkins/webos-ports/workspace/webos-ports/meta-webos-ports/recipes-webos/powerd/powerd.bb'
p20
sS'srcrev'
p21
(lp22
S'a9181b66bc8d5a526588bfd1489beb292900a084'
p23
asS'pn'
p24
S'powerd'
p25
s.(dp0
S'pr'
p1
S'r0'
p2
sS'packagelist'
p3
(lp4
S'pmloglib-private-dbg'
p5
aS'pmloglib-private-staticdev'
p6
aS'pmloglib-private-dev'
p7
aS'pmloglib-private-doc'
p8
aS'pmloglib-private-locale'
p9
aS'pmloglib-private'
p10
asS'pv'
p11
S'3.0.0-30'
p12
sS'depends'
p13
S'autoconf-native automake-native cmake-modules-webos-native cmake-native gnu-config-native libtool-cross libtool-native pkgconfig-native virtual/arm-webos-linux-gnueabi-compilerlibs virtual/arm-webos-linux-gnueabi-gcc virtual/libc'
p14
sS'src_uri'
p15
S'git://github.com/openwebos/pmloglib'
p16
sS'pe'
p17
S'0'
p18
sS'bbfile'
p19
S'/home/jenkins/webos-ports/workspace/webos-ports/meta-webos-ports/recipes-webos/pmloglib/pmloglib-private.bb'
p20
sS'srcrev'
p21
(lp22
S'9ddcaf8601403f9fb048de4db3f7eca3bf506577'
p23
asS'pn'
p24
S'pmloglib-private'
p25
s.(dp0
S'pr'
p1
S'r0'
p2
sS'packagelist'
p3
(lp4
S'luna-sysmgr-common-dbg'
p5
aS'luna-sysmgr-common-staticdev'
p6
aS'luna-sysmgr-common-dev'
p7
aS'luna-sysmgr-common-doc'
p8
aS'luna-sysmgr-common-locale'
p9
aS'luna-sysmgr-common'
p10
asS'pv'
p11
S'3.0.0-3+wop+gitrAUTOINC+67ff08574618582a2f74626929cddaad2fbfcb4f'
p12
sS'depends'
p13
S'cjson glib-2.0 libpbnjson librolegen luna-prefs luna-service2 luna-sysmgr-ipc luna-sysmgr-ipc-messages luna-webkit-api nyx-lib pkgconfig-native pmloglib qmake-webos-native qt-palm-plugin qt4-webos serviceinstaller sqlite3 virtual/arm-webos-linux-gnueabi-compilerlibs virtual/arm-webos-linux-gnueabi-gcc virtual/libc'
p14
sS'src_uri'
p15
S'git://github.com/webOS-ports/luna-sysmgr-common;branch=webOS-ports/master'
p16
sS'pe'
p17
S'0'
p18
sS'bbfile'
p19
S'/home/jenkins/webos-ports/workspace/webos-ports/meta-webos-ports/recipes-webos/luna-sysmgr-common/luna-sysmgr-common.bb'
p20
sS'srcrev'
p21
(lp22
S'67ff08574618582a2f74626929cddaad2fbfcb4f'
p23
asS'pn'
p24
S'luna-sysmgr-common'
p25
s.(dp0
S'pr'
p1
S'r8'
p2
sS'packagelist'
p3
(lp4
S'gst-plugins-good-dbg'
p5
aS'gst-plugins-good-staticdev'
p6
aS'gst-plugins-good-dev'
p7
aS'gst-plugins-good-doc'
p8
aS'gst-plugins-good-locale'
p9
aS'gst-plugins-good'
p10
aS'gst-plugins-good-apps'
p11
aS'gst-plugins-good-meta'
p12
aS'gst-plugins-good-glib'
p13
asS'pv'
p14
S'0.10.31'
p15
sS'depends'
p16
S'autoconf-native automake-native cairo flac gconf gconf gconf-native gettext-native gnu-config-native gst-plugins-base gstreamer jpeg libid3tag libpng libsoup-2.4 libtool-cross libtool-native pkgconfig-native pulseaudio speex virtual/arm-webos-linux-gnueabi-compilerlibs virtual/arm-webos-linux-gnueabi-gcc virtual/gettext virtual/libc zlib'
p17
sS'src_uri'
p18
S'http://gstreamer.freedesktop.org/src/gst-plugins-good/gst-plugins-good-0.10.31.tar.bz2 file://0001-v4l2-fix-build-with-recent-kernels-the-v4l2_buffer-i.patch'
p19
sS'pe'
p20
S'0'
p21
sS'bbfile'
p22
S'/home/jenkins/webos-ports/workspace/webos-ports/openembedded-core/meta/recipes-multimedia/gstreamer/gst-plugins-good_0.10.31.bb'
p23
sS'srcrev'
p24
(lp25
sS'pn'
p26
S'gst-plugins-good'
p27
s.(dp0
S'pr'
p1
S'r0'
p2
sS'packagelist'
p3
(lp4
S'browserserver-dbg'
p5
aS'browserserver-staticdev'
p6
aS'browserserver-dev'
p7
aS'browserserver-doc'
p8
aS'browserserver-locale'
p9
aS'browserserver'
p10
asS'pv'
p11
S'3.0.0-0.7.2+wop+gitrAUTOINC+58ec890291dfa1a927faba069f8b0f1d8ac94e2d'
p12
sS'depends'
p13
S'flex-native glib-2.0 jemalloc libpbnjson libpbnjson luna-service2 luna-sysmgr-ipc-messages luna-webkit-api pkgconfig-native pmcertificatemgr qt4-webos virtual/arm-webos-linux-gnueabi-compilerlibs virtual/arm-webos-linux-gnueabi-gcc virtual/libc webkit-supplemental webkit-webos'
p14
sS'src_uri'
p15
S'git://github.com/webOS-ports/BrowserServer;branch=webOS-ports/master'
p16
sS'pe'
p17
S'0'
p18
sS'bbfile'
p19
S'/home/jenkins/webos-ports/workspace/webos-ports/meta-webos-ports/recipes-webos/browserserver/browserserver.bb'
p20
sS'srcrev'
p21
(lp22
S'58ec890291dfa1a927faba069f8b0f1d8ac94e2d'
p23
asS'pn'
p24
S'browserserver'
p25
s.(dp0
S'pr'
p1
S'r0'
p2
sS'packagelist'
p3
(lp4
S'webos-connman-adapter-dbg'
p5
aS'webos-connman-adapter-staticdev'
p6
aS'webos-connman-adapter-dev'
p7
aS'webos-connman-adapter-doc'
p8
aS'webos-connman-adapter-locale'
p9
aS'webos-connman-adapter'
p10
asS'pv'
p11
S'1.0.0-10'
p12
sS'depends'
p13
S'autoconf-native automake-native cmake-modules-webos-native cmake-native glib-2.0 gnu-config-native libpbnjson libtool-cross libtool-native luna-prefs luna-service2 openssl pkgconfig-native virtual/arm-webos-linux-gnueabi-compilerlibs virtual/arm-webos-linux-gnueabi-gcc virtual/libc'
p14
sS'src_uri'
p15
S'git://github.com/openwebos/webos-connman-adapter file://0001-Don-t-treat-none-as-security-type.patch'
p16
sS'pe'
p17
S'0'
p18
sS'bbfile'
p19
S'/home/jenkins/webos-ports/workspace/webos-ports/meta-webos-ports/recipes-webos/webos-connman-adapter/webos-connman-adapter.bb'
p20
sS'srcrev'
p21
(lp22
S'81b7d1370a7bf7449f47e24fa1df21b21143a8ba'
p23
asS'pn'
p24
S'webos-connman-adapter'
p25
s.(dp0
S'pr'
p1
S'r0'
p2
sS'packagelist'
p3
(lp4
S'nodejs-module-webos-sysbus-dbg'
p5
aS'nodejs-module-webos-sysbus-staticdev'
p6
aS'nodejs-module-webos-sysbus-dev'
p7
aS'nodejs-module-webos-sysbus-doc'
p8
aS'nodejs-module-webos-sysbus-locale'
p9
aS'nodejs-module-webos-sysbus'
p10
asS'pv'
p11
S'2.0.0-25'
p12
sS'depends'
p13
S'autoconf-native automake-native cmake-modules-webos-native cmake-native gnu-config-native libtool-cross libtool-native luna-service2 nodejs pkgconfig-native virtual/arm-webos-linux-gnueabi-compilerlibs virtual/arm-webos-linux-gnueabi-gcc virtual/libc'
p14
sS'src_uri'
p15
S'git://github.com/openwebos/nodejs-module-webos-sysbus'
p16
sS'pe'
p17
S'0'
p18
sS'bbfile'
p19
S'/home/jenkins/webos-ports/workspace/webos-ports/meta-webos-ports/recipes-webos/nodejs-module-webos/nodejs-module-webos-sysbus.bb'
p20
sS'srcrev'
p21
(lp22
S'e9d90d36a265ed3500274e40ba98a5959d89747f'
p23
asS'pn'
p24
S'nodejs-module-webos-sysbus'
p25
s.(dp0
S'pr'
p1
S'r0'
p2
sS'packagelist'
p3
(lp4
S'nodejs-module-webos-pmlog-dbg'
p5
aS'nodejs-module-webos-pmlog-staticdev'
p6
aS'nodejs-module-webos-pmlog-dev'
p7
aS'nodejs-module-webos-pmlog-doc'
p8
aS'nodejs-module-webos-pmlog-locale'
p9
aS'nodejs-module-webos-pmlog'
p10
asS'pv'
p11
S'3.0.0-13'
p12
sS'depends'
p13
S'autoconf-native automake-native cmake-modules-webos-native cmake-native gnu-config-native libtool-cross libtool-native nodejs pkgconfig-native pmloglib virtual/arm-webos-linux-gnueabi-compilerlibs virtual/arm-webos-linux-gnueabi-gcc virtual/libc'
p14
sS'src_uri'
p15
S'git://github.com/openwebos/nodejs-module-webos-pmlog'
p16
sS'pe'
p17
S'0'
p18
sS'bbfile'
p19
S'/home/jenkins/webos-ports/workspace/webos-ports/meta-webos-ports/recipes-webos/nodejs-module-webos/nodejs-module-webos-pmlog.bb'
p20
sS'srcrev'
p21
(lp22
S'93169c8f322ef57bed0020181b28e4caac6c5775'
p23
asS'pn'
p24
S'nodejs-module-webos-pmlog'
p25
s.(dp0
S'pr'
p1
S'r0'
p2
sS'packagelist'
p3
(lp4
S'qt5-webos-plugin-dbg'
p5
aS'qt5-webos-plugin-staticdev'
p6
aS'qt5-webos-plugin-dev'
p7
aS'qt5-webos-plugin-doc'
p8
aS'qt5-webos-plugin-locale'
p9
aS'qt5-webos-plugin'
p10
asS'pv'
p11
S'0.1.0+gitrAUTOINC+f0283c9148a7e070f0e042085c92ba003acc5443'
p12
sS'depends'
p13
S'libwebos-gui luna-sysmgr-ipc luna-sysmgr-ipc-messages qtbase qtbase-native qtdeclarative qtwebkit virtual/arm-webos-linux-gnueabi-compilerlibs virtual/arm-webos-linux-gnueabi-gcc virtual/libc'
p14
sS'src_uri'
p15
S'git://github.com/webOS-ports/qt5-webos-plugin.git;protocol=git;branch=master'
p16
sS'pe'
p17
S'0'
p18
sS'bbfile'
p19
S'/home/jenkins/webos-ports/workspace/webos-ports/meta-webos-ports/recipes-webos/qt5-webos-plugin/qt5-webos-plugin_git.bb'
p20
sS'srcrev'
p21
(lp22
S'f0283c9148a7e070f0e042085c92ba003acc5443'
p23
asS'pn'
p24
S'qt5-webos-plugin'
p25
s.(dp0
S'pr'
p1
S'r0'
p2
sS'packagelist'
p3
(lp4
S'snowshoe-dbg'
p5
aS'snowshoe-staticdev'
p6
aS'snowshoe-dev'
p7
aS'snowshoe-doc'
p8
aS'snowshoe-locale'
p9
aS'snowshoe'
p10
asS'pv'
p11
S'0.2.6+gitrAUTOINC+35afbe295043bd3e27357b8e987ec19b54bfd8c8'
p12
sS'depends'
p13
S'qtbase qtbase-native qtdeclarative qtwebkit virtual/arm-webos-linux-gnueabi-compilerlibs virtual/arm-webos-linux-gnueabi-gcc virtual/libc'
p14
sS'src_uri'
p15
S'     git://gitorious.org/qt-apps/snowshoe.git;branch=master;protocol=git     file://appinfo.json'
p16
sS'pe'
p17
S'0'
p18
sS'bbfile'
p19
S'/home/jenkins/webos-ports/workspace/webos-ports/meta-webos-ports/recipes-qt/snowshoe/snowshoe_git.bb'
p20
sS'srcrev'
p21
(lp22
S'35afbe295043bd3e27357b8e987ec19b54bfd8c8'
p23
asS'pn'
p24
S'snowshoe'
p25
s.(dp0
S'pr'
p1
S'r0'
p2
sS'packagelist'
p3
(lp4
S'org.webosinternals.service.update-dbg'
p5
aS'org.webosinternals.service.update-staticdev'
p6
aS'org.webosinternals.service.update-dev'
p7
aS'org.webosinternals.service.update-doc'
p8
aS'org.webosinternals.service.update-locale'
p9
aS'org.webosinternals.service.update'
p10
asS'pv'
p11
S'0.1.0+gitrAUTOINC+fca1778af67a38e5105ea99ee86540963a031c3e'
p12
sS'depends'
p13
S'autoconf-native automake-native cmake-modules-webos-native cmake-native glib-2.0 gnu-config-native libpbnjson libtool-cross libtool-native luna-service2 opkg pkgconfig-native virtual/arm-webos-linux-gnueabi-compilerlibs virtual/arm-webos-linux-gnueabi-gcc virtual/libc'
p14
sS'src_uri'
p15
S'git://github.com/webOS-ports/org.webosinternals.service.update;branch=master;protocol=git'
p16
sS'pe'
p17
S'0'
p18
sS'bbfile'
p19
S'/home/jenkins/webos-ports/workspace/webos-ports/meta-webos-ports/recipes-webos/services/org.webosinternals.service.update.bb'
p20
sS'srcrev'
p21
(lp22
S'fca1778af67a38e5105ea99ee86540963a031c3e'
p23
asS'pn'
p24
S'org.webosinternals.service.update'
p25
s.(dp0
S'pr'
p1
S'r0'
p2
sS'packagelist'
p3
(lp4
S'org.webosinternals.ipkgservice-dbg'
p5
aS'org.webosinternals.ipkgservice-staticdev'
p6
aS'org.webosinternals.ipkgservice-dev'
p7
aS'org.webosinternals.ipkgservice-doc'
p8
aS'org.webosinternals.ipkgservice-locale'
p9
aS'org.webosinternals.ipkgservice'
p10
asS'pv'
p11
S'2.0.0+gitAUTOINC+65cb032e6d61a3190ff58bc76b485d4ccf864702'
p12
sS'depends'
p13
S'autoconf-native automake-native cmake-modules-webos-native cmake-native glib-2.0 gnu-config-native libtool-cross libtool-native luna-service2 mjson pkgconfig-native virtual/arm-webos-linux-gnueabi-compilerlibs virtual/arm-webos-linux-gnueabi-gcc virtual/libc'
p14
sS'src_uri'
p15
S'git://github.com/webOS-ports/preware;protocol=git;branch=master'
p16
sS'pe'
p17
S'0'
p18
sS'bbfile'
p19
S'/home/jenkins/webos-ports/workspace/webos-ports/meta-webos-ports/recipes-webos/services/org.webosinternals.ipkgservice.bb'
p20
sS'srcrev'
p21
(lp22
S'65cb032e6d61a3190ff58bc76b485d4ccf864702'
p23
asS'pn'
p24
S'org.webosinternals.ipkgservice'
p25
s.(dp0
S'pr'
p1
S'r0'
p2
sS'packagelist'
p3
(lp4
S'org.webosinternals.service.upstartmgr-dbg'
p5
aS'org.webosinternals.service.upstartmgr-staticdev'
p6
aS'org.webosinternals.service.upstartmgr-dev'
p7
aS'org.webosinternals.service.upstartmgr-doc'
p8
aS'org.webosinternals.service.upstartmgr-locale'
p9
aS'org.webosinternals.service.upstartmgr'
p10
asS'pv'
p11
S'0.1.0+gitAUTOINC+ba7941c5ca2c3c13f8b149dc998354174d8241f9'
p12
sS'depends'
p13
S'autoconf-native automake-native cmake-modules-webos-native cmake-native glib-2.0 gnu-config-native libtool-cross libtool-native luna-service2 mjson pkgconfig-native virtual/arm-webos-linux-gnueabi-compilerlibs virtual/arm-webos-linux-gnueabi-gcc virtual/libc'
p14
sS'src_uri'
p15
S'git://github.com/webOS-ports/org.webosinternals.service.upstartmgr;branch=master;protocol=git'
p16
sS'pe'
p17
S'0'
p18
sS'bbfile'
p19
S'/home/jenkins/webos-ports/workspace/webos-ports/meta-webos-ports/recipes-webos/services/org.webosinternals.service.upstartmgr.bb'
p20
sS'srcrev'
p21
(lp22
S'ba7941c5ca2c3c13f8b149dc998354174d8241f9'
p23
asS'pn'
p24
S'org.webosinternals.service.upstartmgr'
p25
s.(dp0
S'pr'
p1
S'r0'
p2
sS'packagelist'
p3
(lp4
S'luna-universalsearchmgr-dbg'
p5
aS'luna-universalsearchmgr-staticdev'
p6
aS'luna-universalsearchmgr-dev'
p7
aS'luna-universalsearchmgr-doc'
p8
aS'luna-universalsearchmgr-locale'
p9
aS'luna-universalsearchmgr'
p10
asS'pv'
p11
S'2.0.0-1.00'
p12
sS'depends'
p13
S'autoconf-native automake-native cjson cmake-modules-webos-native cmake-native glib-2.0 gnu-config-native libtool-cross libtool-native libxml2 luna-service2 pkgconfig-native sqlite3 virtual/arm-webos-linux-gnueabi-compilerlibs virtual/arm-webos-linux-gnueabi-gcc virtual/libc'
p14
sS'src_uri'
p15
S'git://github.com/openwebos/luna-universalsearchmgr'
p16
sS'pe'
p17
S'0'
p18
sS'bbfile'
p19
S'/home/jenkins/webos-ports/workspace/webos-ports/meta-webos-ports/recipes-webos/luna-universalsearchmgr/luna-universalsearchmgr.bb'
p20
sS'srcrev'
p21
(lp22
S'a9a7751d97888f88b1b9a0bfa9b7997201d4f4cc'
p23
asS'pn'
p24
S'luna-universalsearchmgr'
p25
s.(dp0
S'pr'
p1
S'r0'
p2
sS'packagelist'
p3
(lp4
S'sleepd-dbg'
p5
aS'sleepd-staticdev'
p6
aS'sleepd-dev'
p7
aS'sleepd-doc'
p8
aS'sleepd-locale'
p9
aS'sleepd'
p10
asS'pv'
p11
S'1.1.1-14'
p12
sS'depends'
p13
S'autoconf-native automake-native cjson cmake-modules-webos-native cmake-native glib-2.0 gnu-config-native libtool-cross libtool-native libxml2 luna-service2 nyx-lib pkgconfig-native powerd sqlite3 virtual/arm-webos-linux-gnueabi-compilerlibs virtual/arm-webos-linux-gnueabi-gcc virtual/libc'
p14
sS'src_uri'
p15
S'git://github.com/openwebos/sleepd file://use-wakelockd-for-suspend.patch'
p16
sS'pe'
p17
S'0'
p18
sS'bbfile'
p19
S'/home/jenkins/webos-ports/workspace/webos-ports/meta-webos-ports/recipes-webos/sleepd/sleepd.bb'
p20
sS'srcrev'
p21
(lp22
S'242ce195a3c6f1530d908fb3abdce1f9f2629986'
p23
asS'pn'
p24
S'sleepd'
p25
s.(dp0
S'pr'
p1
S'r0'
p2
sS'packagelist'
p3
(lp4
S'pmlogdaemon-dbg'
p5
aS'pmlogdaemon-staticdev'
p6
aS'pmlogdaemon-dev'
p7
aS'pmlogdaemon-doc'
p8
aS'pmlogdaemon-locale'
p9
aS'pmlogdaemon'
p10
asS'pv'
p11
S'3.0.0-105'
p12
sS'depends'
p13
S'autoconf-native automake-native cmake-modules-webos-native cmake-native glib-2.0 gnu-config-native libpbnjson librdx libtool-cross libtool-native pkgconfig-native pmloglib pmloglib-private virtual/arm-webos-linux-gnueabi-compilerlibs virtual/arm-webos-linux-gnueabi-gcc virtual/libc zlib'
p14
sS'src_uri'
p15
S'git://github.com/openwebos/pmlogdaemon'
p16
sS'pe'
p17
S'0'
p18
sS'bbfile'
p19
S'/home/jenkins/webos-ports/workspace/webos-ports/meta-webos-ports/recipes-webos/pmlogdaemon/pmlogdaemon.bb'
p20
sS'srcrev'
p21
(lp22
S'40d4e06b2be0926ae102666da97543824458ce1b'
p23
asS'pn'
p24
S'pmlogdaemon'
p25
s.(dp0
S'pr'
p1
S'r0'
p2
sS'packagelist'
p3
(lp4
S'pmlogctl-dbg'
p5
aS'pmlogctl-staticdev'
p6
aS'pmlogctl-dev'
p7
aS'pmlogctl-doc'
p8
aS'pmlogctl-locale'
p9
aS'pmlogctl'
p10
asS'pv'
p11
S'3.0.0-12'
p12
sS'depends'
p13
S'autoconf-native automake-native cmake-modules-webos-native cmake-native gnu-config-native libtool-cross libtool-native pkgconfig-native pmloglib virtual/arm-webos-linux-gnueabi-compilerlibs virtual/arm-webos-linux-gnueabi-gcc virtual/libc'
p14
sS'src_uri'
p15
S'git://github.com/openwebos/pmlogctl'
p16
sS'pe'
p17
S'0'
p18
sS'bbfile'
p19
S'/home/jenkins/webos-ports/workspace/webos-ports/meta-webos-ports/recipes-webos/pmlogctl/pmlogctl.bb'
p20
sS'srcrev'
p21
(lp22
S'099f824d57264ef621e0738d8eee0419a6133276'
p23
asS'pn'
p24
S'pmlogctl'
p25
s.(dp0
S'pr'
p1
S'r0'
p2
sS'packagelist'
p3
(lp4
S'nyx-modules-dbg'
p5
aS'nyx-modules-staticdev'
p6
aS'nyx-modules-dev'
p7
aS'nyx-modules-doc'
p8
aS'nyx-modules-locale'
p9
aS'nyx-modules'
p10
aS'nyx-modules-tests'
p11
asS'pv'
p12
S'5.1.0-89+wop+gitrAUTOINC+daab3e726eb1512a124f9cc6a2a9bbd0968531ba'
p13
sS'depends'
p14
S'autoconf-native automake-native cmake-modules-webos-native cmake-native glib-2.0 gnu-config-native libtool-cross libtool-native luna-service2 mtdev nyx-lib openssl pkgconfig-native virtual/arm-webos-linux-gnueabi-compilerlibs virtual/arm-webos-linux-gnueabi-gcc virtual/libc'
p15
sS'src_uri'
p16
S'git://github.com/webOS-ports/nyx-modules;branch=webOS-ports/master'
p17
sS'pe'
p18
S'0'
p19
sS'bbfile'
p20
S'/home/jenkins/webos-ports/workspace/webos-ports/meta-webos-ports/recipes-webos/nyx-modules/nyx-modules.bb'
p21
sS'srcrev'
p22
(lp23
S'daab3e726eb1512a124f9cc6a2a9bbd0968531ba'
p24
asS'pn'
p25
S'nyx-modules'
p26
s.(dp0
S'pr'
p1
S'r0'
p2
sS'packagelist'
p3
(lp4
S'mojoservicelauncher-dbg'
p5
aS'mojoservicelauncher-staticdev'
p6
aS'mojoservicelauncher-dev'
p7
aS'mojoservicelauncher-doc'
p8
aS'mojoservicelauncher-locale'
p9
aS'mojoservicelauncher'
p10
asS'pv'
p11
S'2.0.0-71'
p12
sS'depends'
p13
S'autoconf-native automake-native boost cmake-modules-webos-native cmake-native gnu-config-native libpbnjson libtool-cross libtool-native pkgconfig-native virtual/arm-webos-linux-gnueabi-compilerlibs virtual/arm-webos-linux-gnueabi-gcc virtual/libc'
p14
sS'src_uri'
p15
S'git://github.com/openwebos/mojoservicelauncher file://disable-jailing-per-default.patch'
p16
sS'pe'
p17
S'0'
p18
sS'bbfile'
p19
S'/home/jenkins/webos-ports/workspace/webos-ports/meta-webos-ports/recipes-webos/mojoservicelauncher/mojoservicelauncher.bb'
p20
sS'srcrev'
p21
(lp22
S'8ed954566fe77432e9b5a3c30f7654a0ec9c6466'
p23
asS'pn'
p24
S'mojoservicelauncher'
p25
s.(dp0
S'pr'
p1
S'r0'
p2
sS'packagelist'
p3
(lp4
S'mojomail-smtp-dbg'
p5
aS'mojomail-smtp-staticdev'
p6
aS'mojomail-smtp-dev'
p7
aS'mojomail-smtp-doc'
p8
aS'mojomail-smtp-locale'
p9
aS'mojomail-smtp'
p10
asS'pv'
p11
S'2.0.0-99'
p12
sS'depends'
p13
S'autoconf-native automake-native boost c-ares cjson cmake-modules-webos-native cmake-native curl db8 glib-2.0 gnu-config-native icu jemalloc libpalmsocket libsandbox libtool-cross libtool-native luna-service2 mojomail-common pkgconfig-native pmloglib virtual/arm-webos-linux-gnueabi-compilerlibs virtual/arm-webos-linux-gnueabi-gcc virtual/libc'
p14
sS'src_uri'
p15
S'git://github.com/openwebos/mojomail'
p16
sS'pe'
p17
S'0'
p18
sS'bbfile'
p19
S'/home/jenkins/webos-ports/workspace/webos-ports/meta-webos-ports/recipes-webos/mojomail/mojomail-smtp.bb'
p20
sS'srcrev'
p21
(lp22
S'9a4316e6bcb76445673d48a310b0bd446b280f94'
p23
asS'pn'
p24
S'mojomail-smtp'
p25
s.(dp0
S'pr'
p1
S'r0'
p2
sS'packagelist'
p3
(lp4
S'mojomail-pop-dbg'
p5
aS'mojomail-pop-staticdev'
p6
aS'mojomail-pop-dev'
p7
aS'mojomail-pop-doc'
p8
aS'mojomail-pop-locale'
p9
aS'mojomail-pop'
p10
asS'pv'
p11
S'2.0.0-99'
p12
sS'depends'
p13
S'autoconf-native automake-native boost c-ares cjson cmake-modules-webos-native cmake-native db8 glib-2.0 gnu-config-native icu jemalloc libpalmsocket libsandbox libtool-cross libtool-native luna-service2 mojomail-common pkgconfig-native pmloglib virtual/arm-webos-linux-gnueabi-compilerlibs virtual/arm-webos-linux-gnueabi-gcc virtual/libc'
p14
sS'src_uri'
p15
S'git://github.com/openwebos/mojomail'
p16
sS'pe'
p17
S'0'
p18
sS'bbfile'
p19
S'/home/jenkins/webos-ports/workspace/webos-ports/meta-webos-ports/recipes-webos/mojomail/mojomail-pop.bb'
p20
sS'srcrev'
p21
(lp22
S'9a4316e6bcb76445673d48a310b0bd446b280f94'
p23
asS'pn'
p24
S'mojomail-pop'
p25
s.(dp0
S'pr'
p1
S'r0'
p2
sS'packagelist'
p3
(lp4
S'mojomail-imap-dbg'
p5
aS'mojomail-imap-staticdev'
p6
aS'mojomail-imap-dev'
p7
aS'mojomail-imap-doc'
p8
aS'mojomail-imap-locale'
p9
aS'mojomail-imap'
p10
asS'pv'
p11
S'2.0.0-99'
p12
sS'depends'
p13
S'autoconf-native automake-native boost c-ares cjson cmake-modules-webos-native cmake-native db8 glib-2.0 gnu-config-native icu jemalloc libpalmsocket libsandbox libtool-cross libtool-native luna-service2 mojomail-common pkgconfig-native pmloglib virtual/arm-webos-linux-gnueabi-compilerlibs virtual/arm-webos-linux-gnueabi-gcc virtual/libc'
p14
sS'src_uri'
p15
S'git://github.com/openwebos/mojomail'
p16
sS'pe'
p17
S'0'
p18
sS'bbfile'
p19
S'/home/jenkins/webos-ports/workspace/webos-ports/meta-webos-ports/recipes-webos/mojomail/mojomail-imap.bb'
p20
sS'srcrev'
p21
(lp22
S'9a4316e6bcb76445673d48a310b0bd446b280f94'
p23
asS'pn'
p24
S'mojomail-imap'
p25
s.(dp0
S'pr'
p1
S'r0'
p2
sS'packagelist'
p3
(lp4
S'luna-sysservice-dbg'
p5
aS'luna-sysservice-staticdev'
p6
aS'luna-sysservice-dev'
p7
aS'luna-sysservice-doc'
p8
aS'luna-sysservice-locale'
p9
aS'luna-sysservice'
p10
asS'pv'
p11
S'2.0.1-1.04'
p12
sS'depends'
p13
S'autoconf-native automake-native cmake-modules-webos-native cmake-native gnu-config-native libpbnjson libtool-cross libtool-native luna-service2 pkgconfig-native qt4-webos uriparser virtual/arm-webos-linux-gnueabi-compilerlibs virtual/arm-webos-linux-gnueabi-gcc virtual/libc'
p14
sS'src_uri'
p15
S'git://github.com/openwebos/luna-sysservice'
p16
sS'pe'
p17
S'0'
p18
sS'bbfile'
p19
S'/home/jenkins/webos-ports/workspace/webos-ports/meta-webos-ports/recipes-webos/luna-sysservice/luna-sysservice.bb'
p20
sS'srcrev'
p21
(lp22
S'e19d2962fca7f03df92825827c55254e32200feb'
p23
asS'pn'
p24
S'luna-sysservice'
p25
s.(dp0
S'pr'
p1
S'r0'
p2
sS'packagelist'
p3
(lp4
S'filecache-dbg'
p5
aS'filecache-staticdev'
p6
aS'filecache-dev'
p7
aS'filecache-doc'
p8
aS'filecache-locale'
p9
aS'filecache'
p10
asS'pv'
p11
S'2.0.0-55'
p12
sS'depends'
p13
S'autoconf-native automake-native boost cmake-modules-webos-native cmake-native db8 glib-2.0 glibmm gnu-config-native jemalloc libsandbox libsigc++-2.0 libtool-cross libtool-native luna-service2 pkgconfig-native virtual/arm-webos-linux-gnueabi-compilerlibs virtual/arm-webos-linux-gnueabi-gcc virtual/libc'
p14
sS'src_uri'
p15
S'git://github.com/openwebos/filecache'
p16
sS'pe'
p17
S'0'
p18
sS'bbfile'
p19
S'/home/jenkins/webos-ports/workspace/webos-ports/meta-webos-ports/recipes-webos/filecache/filecache.bb'
p20
sS'srcrev'
p21
(lp22
S'e95fd53e8598b99950a7fab2e13dbbad0f12f0b6'
p23
asS'pn'
p24
S'filecache'
p25
s.(dp0
S'pr'
p1
S'r0'
p2
sS'packagelist'
p3
(lp4
S'configurator-dbg'
p5
aS'configurator-staticdev'
p6
aS'configurator-dev'
p7
aS'configurator-doc'
p8
aS'configurator-locale'
p9
aS'configurator'
p10
asS'pv'
p11
S'2.0.0-48'
p12
sS'depends'
p13
S'autoconf-native automake-native cjson cmake-modules-webos-native cmake-native db8 glib-2.0 gnu-config-native libtool-cross libtool-native luna-service2 pkgconfig-native virtual/arm-webos-linux-gnueabi-compilerlibs virtual/arm-webos-linux-gnueabi-gcc virtual/libc'
p14
sS'src_uri'
p15
S'git://github.com/openwebos/configurator'
p16
sS'pe'
p17
S'0'
p18
sS'bbfile'
p19
S'/home/jenkins/webos-ports/workspace/webos-ports/meta-webos-ports/recipes-webos/configurator/configurator.bb'
p20
sS'srcrev'
p21
(lp22
S'3be478322fc87f0340770a62be5627d1625ae462'
p23
asS'pn'
p24
S'configurator'
p25
s.(dp0
S'pr'
p1
S'r0'
p2
sS'packagelist'
p3
(lp4
S'activitymanager-dbg'
p5
aS'activitymanager-staticdev'
p6
aS'activitymanager-dev'
p7
aS'activitymanager-doc'
p8
aS'activitymanager-locale'
p9
aS'activitymanager'
p10
asS'pv'
p11
S'2.0.0-110'
p12
sS'depends'
p13
S'autoconf-native automake-native boost cmake-modules-webos-native cmake-native db8 glib-2.0 gnu-config-native libtool-cross libtool-native luna-service2 openssl pkgconfig-native virtual/arm-webos-linux-gnueabi-compilerlibs virtual/arm-webos-linux-gnueabi-gcc virtual/libc'
p14
sS'src_uri'
p15
S'git://github.com/openwebos/activitymanager'
p16
sS'pe'
p17
S'0'
p18
sS'bbfile'
p19
S'/home/jenkins/webos-ports/workspace/webos-ports/meta-webos-ports/recipes-webos/activitymanager/activitymanager.bb'
p20
sS'srcrev'
p21
(lp22
S'84ac0d7e9a87f5bb190a553ff827458e2dd1426c'
p23
asS'pn'
p24
S'activitymanager'
p25
s.(dp0
S'pr'
p1
S'r13'
p2
sS'packagelist'
p3
(lp4
S'gst-meta-base'
p5
aS'gst-meta-x11-base'
p6
aS'gst-meta-audio'
p7
aS'gst-meta-debug'
p8
aS'gst-meta-video'
p9
asS'pv'
p10
S'0.10'
p11
sS'depends'
p12
S'gst-plugins-bad gst-plugins-base gst-plugins-good gstreamer virtual/arm-webos-linux-gnueabi-compilerlibs virtual/arm-webos-linux-gnueabi-gcc virtual/libc'
p13
sS'src_uri'
p14
S''
p15
sS'pe'
p16
S'0'
p17
sS'bbfile'
p18
S'/home/jenkins/webos-ports/workspace/webos-ports/openembedded-core/meta/recipes-multimedia/gstreamer/gst-meta-base_0.10.bb'
p19
sS'srcrev'
p20
(lp21
sS'pn'
p22
S'gst-meta-base'
p23
s.(dp0
S'pr'
p1
S'r0'
p2
sS'packagelist'
p3
(lp4
S'browser-adapter-dbg'
p5
aS'browser-adapter-staticdev'
p6
aS'browser-adapter-dev'
p7
aS'browser-adapter-doc'
p8
aS'browser-adapter-locale'
p9
aS'browser-adapter'
p10
asS'pv'
p11
S'3.0.0-0.4'
p12
sS'depends'
p13
S'adapterbase browserserver glib-2.0 libpng npapi-headers pkgconfig-native qt4-webos virtual/arm-webos-linux-gnueabi-compilerlibs virtual/arm-webos-linux-gnueabi-gcc virtual/libc'
p14
sS'src_uri'
p15
S'git://github.com/isis-project/BrowserAdapter'
p16
sS'pe'
p17
S'0'
p18
sS'bbfile'
p19
S'/home/jenkins/webos-ports/workspace/webos-ports/meta-webos-ports/recipes-webos/browser-adapter/browser-adapter.bb'
p20
sS'srcrev'
p21
(lp22
S'7c4cb757dcaac08a18e0ea1699e2c748710bdbc5'
p23
asS'pn'
p24
S'browser-adapter'
p25
s.(dp0
S'pr'
p1
S'r0'
p2
sS'packagelist'
p3
(lp4
S'luna-sysmgr-dbg'
p5
aS'luna-sysmgr-staticdev'
p6
aS'luna-sysmgr-dev'
p7
aS'luna-sysmgr-doc'
p8
aS'luna-sysmgr-locale'
p9
aS'luna-sysmgr'
p10
asS'pv'
p11
S'3.0.0-3+wop+gitrAUTOINC+44dbcb5bc247da0ce201adc98259896c88774ffa'
p12
sS'depends'
p13
S'cjson freetype libpbnjson librolegen libwebos-gui luna-prefs luna-service2 luna-sysmgr-common luna-sysmgr-ipc luna-sysmgr-ipc-messages luna-webkit-api nyx-lib openssl pmloglib qmake-webos-native qt-palm-plugin qt4-webos serviceinstaller sqlite3 virtual/arm-webos-linux-gnueabi-compilerlibs virtual/arm-webos-linux-gnueabi-gcc virtual/libc'
p14
sS'src_uri'
p15
S'git://github.com/webOS-ports/luna-sysmgr;branch=webOS-ports/master'
p16
sS'pe'
p17
S'0'
p18
sS'bbfile'
p19
S'/home/jenkins/webos-ports/workspace/webos-ports/meta-webos-ports/recipes-webos/luna-sysmgr/luna-sysmgr.bb'
p20
sS'srcrev'
p21
(lp22
S'44dbcb5bc247da0ce201adc98259896c88774ffa'
p23
asS'pn'
p24
S'luna-sysmgr'
p25
s.(dp0
S'pr'
p1
S'r0'
p2
sS'packagelist'
p3
(lp4
S'webappmanager-dbg'
p5
aS'webappmanager-staticdev'
p6
aS'webappmanager-dev'
p7
aS'webappmanager-doc'
p8
aS'webappmanager-locale'
p9
aS'webappmanager'
p10
asS'pv'
p11
S'3.0.0-3+wop+gitrAUTOINC+811afcf9ba31f7c058a49fa29ed3087c51ebc3a1'
p12
sS'depends'
p13
S'cjson freetype libpbnjson librolegen luna-prefs luna-service2 luna-sysmgr-common luna-sysmgr-ipc luna-sysmgr-ipc-messages luna-webkit-api npapi-headers nyx-lib openssl qmake-webos-native qt-webos-plugin qt4-webos serviceinstaller sqlite3 virtual/arm-webos-linux-gnueabi-compilerlibs virtual/arm-webos-linux-gnueabi-gcc virtual/libc webkit-webos'
p14
sS'src_uri'
p15
S'git://github.com/webOS-ports/webappmanager;branch=webOS-ports/master'
p16
sS'pe'
p17
S'0'
p18
sS'bbfile'
p19
S'/home/jenkins/webos-ports/workspace/webos-ports/meta-webos-ports/recipes-webos/webappmanager/webappmanager.bb'
p20
sS'srcrev'
p21
(lp22
S'811afcf9ba31f7c058a49fa29ed3087c51ebc3a1'
p23
asS'pn'
p24
S'webappmanager'
p25
s.(dp0
S'pr'
p1
S'r0'
p2
sS'packagelist'
p3
(lp4
S'keyboard-efigs-dbg'
p5
aS'keyboard-efigs-staticdev'
p6
aS'keyboard-efigs-dev'
p7
aS'keyboard-efigs-doc'
p8
aS'keyboard-efigs-locale'
p9
aS'keyboard-efigs'
p10
asS'pv'
p11
S'3.0.0-2+wop+gitrAUTOINC+fc69babb308f11ee3f42334af393f51a2d9be198'
p12
sS'depends'
p13
S'glib-2.0 libpbnjson luna-prefs luna-service2 luna-webkit-api pkgconfig-native qmake-webos-native qt4-webos virtual/arm-webos-linux-gnueabi-compilerlibs virtual/arm-webos-linux-gnueabi-gcc virtual/libc'
p14
sS'src_uri'
p15
S'git://github.com/webOS-ports/keyboard-efigs;branch=webOS-ports/master'
p16
sS'pe'
p17
S'0'
p18
sS'bbfile'
p19
S'/home/jenkins/webos-ports/workspace/webos-ports/meta-webos-ports/recipes-webos/keyboard-efigs/keyboard-efigs.bb'
p20
sS'srcrev'
p21
(lp22
S'fc69babb308f11ee3f42334af393f51a2d9be198'
p23
asS'pn'
p24
S'keyboard-efigs'
p25
s.