(dp0
S'pr'
p1
S'r6.1'
p2
sS'packagelist'
p3
(lp4
sS'pv'
p5
S'2.4.2'
p6
sS'depends'
p7
S'autoconf-native automake-native gnu-config-native'
p8
sS'src_uri'
p9
S'ftp://ftp.gnu.org/gnu/libtool/libtool-2.4.2.tar.gz            file://trailingslash.patch            file://rename-with-sysroot.patch            file://use-sysroot-in-libpath.patch            file://fix-final-rpath.patch            file://avoid_absolute_paths_for_general_utils.patch            file://fix-rpath.patch \t   file://respect-fstack-protector.patch            file://norm-rpath.patch            file://dont-depend-on-help2man.patch            file://prefix.patch'
p10
sS'pe'
p11
S'0'
p12
sS'bbfile'
p13
S'/OE/webos/wpb/webos-ports/openembedded-core/meta/recipes-devtools/libtool/libtool-native_2.4.2.bb'
p14
sS'srcrev'
p15
(lp16
sS'pn'
p17
S'libtool-native'
p18
s.(dp0
S'pr'
p1
S'r7'
p2
sS'packagelist'
p3
(lp4
sS'pv'
p5
S'0.25'
p6
sS'depends'
p7
S'autoconf-native automake-native gnu-config-native libtool-native'
p8
sS'src_uri'
p9
S'http://pkgconfig.freedesktop.org/releases/pkg-config-0.25.tar.gz            file://autofoo.patch            file://glibconfig-sysdefs.h            file://pkg-config-native.in            file://disable-legacy.patch            file://obsolete_automake_macros.patch           '
p10
sS'pe'
p11
S'0'
p12
sS'bbfile'
p13
S'virtual:native:/OE/webos/wpb/webos-ports/openembedded-core/meta/recipes-devtools/pkgconfig/pkgconfig_0.25.bb'
p14
sS'srcrev'
p15
(lp16
sS'pn'
p17
S'pkgconfig-native'
p18
s.(dp0
S'pr'
p1
S'r0'
p2
sS'packagelist'
p3
(lp4
sS'pv'
p5
S'3071502'
p6
sS'depends'
p7
S'autoconf-native automake-native gnu-config-native libtool-native pkgconfig-native'
p8
sS'src_uri'
p9
S'http://www.sqlite.org/sqlite-autoconf-3071502.tar.gz file://removedoc-webos.patch'
p10
sS'pe'
p11
S'0'
p12
sS'bbfile'
p13
S'virtual:native:/OE/webos/wpb/webos-ports/openembedded-core/meta/recipes-support/sqlite/sqlite3_3071502.bb'
p14
sS'srcrev'
p15
(lp16
sS'pn'
p17
S'sqlite3-native'
p18
s.(dp0
S'pr'
p1
S'r3'
p2
sS'packagelist'
p3
(lp4
sS'pv'
p5
S'1.5.1'
p6
sS'depends'
p7
S'sqlite3-native'
p8
sS'src_uri'
p9
S'http://www.yoctoproject.org/downloads/pseudo/pseudo-1.5.1.tar.bz2 file://symver.patch'
p10
sS'pe'
p11
S'0'
p12
sS'bbfile'
p13
S'virtual:native:/OE/webos/wpb/webos-ports/openembedded-core/meta/recipes-devtools/pseudo/pseudo_1.5.1.bb'
p14
sS'srcrev'
p15
(lp16
sS'pn'
p17
S'pseudo-native'
p18
s.