(dp0
S'pr'
p1
S'r6.1'
p2
sS'packagelist'
p3
(lp4
sS'pv'
p5
S'2.4.2'
p6
sS'depends'
p7
S'autoconf-native automake-native gnu-config-native'
p8
sS'src_uri'
p9
S'ftp://ftp.gnu.org/gnu/libtool/libtool-2.4.2.tar.gz            file://trailingslash.patch            file://rename-with-sysroot.patch            file://use-sysroot-in-libpath.patch            file://fix-final-rpath.patch            file://avoid_absolute_paths_for_general_utils.patch            file://fix-rpath.patch \t   file://respect-fstack-protector.patch            file://norm-rpath.patch            file://dont-depend-on-help2man.patch            file://prefix.patch'
p10
sS'pe'
p11
S'0'
p12
sS'bbfile'
p13
S'/OE/webos/owpb/openwebos-ports/openembedded-core/meta/recipes-devtools/libtool/libtool-native_2.4.2.bb'
p14
sS'srcrev'
p15
(lp16
sS'pn'
p17
S'libtool-native'
p18
s.(dp0
S'pr'
p1
S'r0'
p2
sS'packagelist'
p3
(lp4
sS'pv'
p5
S'5.1.2alpha'
p6
sS'depends'
p7
S'autoconf-native automake-native gettext-minimal-native gnu-config-native libtool-native'
p8
sS'src_uri'
p9
S'http://tukaani.org/xz/xz-5.1.2alpha.tar.gz'
p10
sS'pe'
p11
S'0'
p12
sS'bbfile'
p13
S'virtual:native:/OE/webos/owpb/openwebos-ports/openembedded-core/meta/recipes-extended/xz/xz_5.1.2alpha.bb'
p14
sS'srcrev'
p15
(lp16
sS'pn'
p17
S'xz-native'
p18
s.(dp0
S'pr'
p1
S'r0'
p2
sS'packagelist'
p3
(lp4
sS'pv'
p5
S'5.1.1'
p6
sS'depends'
p7
S'autoconf-native automake-native gnu-config-native libtool-native'
p8
sS'src_uri'
p9
S'ftp://ftp.gmplib.org/pub/gmp-5.1.1/gmp-5.1.1.tar.bz2 \t   file://configure.patch \t   file://amd64.patch  file://use-includedir.patch                    '
p10
sS'pe'
p11
S'0'
p12
sS'bbfile'
p13
S'virtual:native:/OE/webos/owpb/openwebos-ports/openembedded-core/meta/recipes-support/gmp/gmp_5.1.1.bb'
p14
sS'srcrev'
p15
(lp16
sS'pn'
p17
S'gmp-native'
p18
s.(dp0
S'pr'
p1
S'r0'
p2
sS'packagelist'
p3
(lp4
sS'pv'
p5
S'0.28'
p6
sS'depends'
p7
S'autoconf-native automake-native gnu-config-native libtool-native'
p8
sS'src_uri'
p9
S'http://pkgconfig.freedesktop.org/releases/pkg-config-0.28.tar.gz              file://glibconfig-sysdefs.h             file://pkg-config-native.in             file://fix-glib-configure-libtool-usage.patch             file://obsolete_automake_macros.patch            '
p10
sS'pe'
p11
S'0'
p12
sS'bbfile'
p13
S'virtual:native:/OE/webos/owpb/openwebos-ports/openembedded-core/meta/recipes-devtools/pkgconfig/pkgconfig_0.28.bb'
p14
sS'srcrev'
p15
(lp16
sS'pn'
p17
S'pkgconfig-native'
p18
s.(dp0
S'pr'
p1
S'r0'
p2
sS'packagelist'
p3
(lp4
sS'pv'
p5
S'1.2.8'
p6
sS'depends'
p7
S''
p8
sS'src_uri'
p9
S'http://www.zlib.net/zlib-1.2.8.tar.xz            file://remove.ldconfig.call.patch            '
p10
sS'pe'
p11
S'0'
p12
sS'bbfile'
p13
S'virtual:native:/OE/webos/owpb/openwebos-ports/openembedded-core/meta/recipes-core/zlib/zlib_1.2.8.bb'
p14
sS'srcrev'
p15
(lp16
sS'pn'
p17
S'zlib-native'
p18
s.(dp0
S'pr'
p1
S'r0'
p2
sS'packagelist'
p3
(lp4
sS'pv'
p5
S'3071700'
p6
sS'depends'
p7
S'autoconf-native automake-native gnu-config-native libtool-native pkgconfig-native'
p8
sS'src_uri'
p9
S'http://www.sqlite.org/2013/sqlite-autoconf-3071700.tar.gz file://removedoc-webos.patch'
p10
sS'pe'
p11
S'0'
p12
sS'bbfile'
p13
S'virtual:native:/OE/webos/owpb/openwebos-ports/openembedded-core/meta/recipes-support/sqlite/sqlite3_3071700.bb'
p14
sS'srcrev'
p15
(lp16
sS'pn'
p17
S'sqlite3-native'
p18
s.(dp0
S'pr'
p1
S'r3'
p2
sS'packagelist'
p3
(lp4
sS'pv'
p5
S'1.5.1'
p6
sS'depends'
p7
S'sqlite3-native'
p8
sS'src_uri'
p9
S'http://www.yoctoproject.org/downloads/pseudo/pseudo-1.5.1.tar.bz2 file://symver.patch'
p10
sS'pe'
p11
S'0'
p12
sS'bbfile'
p13
S'virtual:native:/OE/webos/owpb/openwebos-ports/openembedded-core/meta/recipes-devtools/pseudo/pseudo_1.5.1.bb'
p14
sS'srcrev'
p15
(lp16
sS'pn'
p17
S'pseudo-native'
p18
s.(dp0
S'pr'
p1
S'r0'
p2
sS'packagelist'
p3
(lp4
sS'pv'
p5
S'2.7.1'
p6
sS'depends'
p7
S'autoconf-native automake-native gettext-minimal-native gettext-minimal-native gnu-config-native libtool-native'
p8
sS'src_uri'
p9
S'ftp://ftp.gnu.org/gnu/bison/bison-2.7.1.tar.xz \t        file://m4.patch                 file://dont-depend-on-help2man.patch \t       '
p10
sS'pe'
p11
S'0'
p12
sS'bbfile'
p13
S'virtual:native:/OE/webos/owpb/openwebos-ports/openembedded-core/meta/recipes-devtools/bison/bison_2.7.1.bb'
p14
sS'srcrev'
p15
(lp16
sS'pn'
p17
S'bison-native'
p18
s.(dp0
S'pr'
p1
S'r0'
p2
sS'packagelist'
p3
(lp4
sS'pv'
p5
S'3.1.2'
p6
sS'depends'
p7
S'autoconf-native automake-native gmp-native gnu-config-native libtool-native'
p8
sS'src_uri'
p9
S'http://www.mpfr.org/mpfr-3.1.2/mpfr-3.1.2.tar.xz            file://long-long-thumb.patch            '
p10
sS'pe'
p11
S'0'
p12
sS'bbfile'
p13
S'virtual:native:/OE/webos/owpb/openwebos-ports/openembedded-core/meta/recipes-support/mpfr/mpfr_3.1.2.bb'
p14
sS'srcrev'
p15
(lp16
sS'pn'
p17
S'mpfr-native'
p18
s.(dp0
S'pr'
p1
S'r3'
p2
sS'packagelist'
p3
(lp4
sS'pv'
p5
S'2.5.35'
p6
sS'depends'
p7
S'autoconf-native automake-native gettext-minimal-native gnu-config-native libtool-native'
p8
sS'src_uri'
p9
S'http://downloads.sourceforge.net/flex/flex-2.5.35.tar.bz2  file://avoid-FORTIFY-warnings.patch             file://int-is-not-the-same-size-as-size_t.patch'
p10
sS'pe'
p11
S'0'
p12
sS'bbfile'
p13
S'virtual:native:/OE/webos/owpb/openwebos-ports/openembedded-core/meta/recipes-devtools/flex/flex_2.5.35.bb'
p14
sS'srcrev'
p15
(lp16
sS'pn'
p17
S'flex-native'
p18
s.(dp0
S'pr'
p1
S'r0'
p2
sS'packagelist'
p3
(lp4
sS'pv'
p5
S'3.0.4'
p6
sS'depends'
p7
S'autoconf-native automake-native gnu-config-native libtool-native'
p8
sS'src_uri'
p9
S'ftp://ftp.gnu.org/gnu/gperf/gperf-3.0.4.tar.gz'
p10
sS'pe'
p11
S'0'
p12
sS'bbfile'
p13
S'virtual:native:/OE/webos/owpb/openwebos-ports/openembedded-core/meta/recipes-extended/gperf/gperf_3.0.4.bb'
p14
sS'srcrev'
p15
(lp16
sS'pn'
p17
S'gperf-native'
p18
s.(dp0
S'pr'
p1
S'r15.1'
p2
sS'packagelist'
p3
(lp4
sS'pv'
p5
S'5.9'
p6
sS'depends'
p7
S'autoconf-native automake-native gnu-config-native libtool-native'
p8
sS'src_uri'
p9
S'ftp://ftp.gnu.org/gnu/ncurses/ncurses-5.9.tar.gz file://tic-hang.patch             file://config.cache '
p10
sS'pe'
p11
S'0'
p12
sS'bbfile'
p13
S'virtual:native:/OE/webos/owpb/openwebos-ports/openembedded-core/meta/recipes-core/ncurses/ncurses_5.9.bb'
p14
sS'srcrev'
p15
(lp16
sS'pn'
p17
S'ncurses-native'
p18
s.(dp0
S'pr'
p1
S'r0'
p2
sS'packagelist'
p3
(lp4
sS'pv'
p5
S'1.0.1'
p6
sS'depends'
p7
S'autoconf-native automake-native gmp-native gnu-config-native libtool-native mpfr-native'
p8
sS'src_uri'
p9
S'http://www.multiprecision.org/mpc/download/mpc-1.0.1.tar.gz'
p10
sS'pe'
p11
S'0'
p12
sS'bbfile'
p13
S'virtual:native:/OE/webos/owpb/openwebos-ports/openembedded-core/meta/recipes-support/libmpc/libmpc_1.0.1.bb'
p14
sS'srcrev'
p15
(lp16
sS'pn'
p17
S'libmpc-native'
p18
s.(dp0
S'pr'
p1
S'r4'
p2
sS'packagelist'
p3
(lp4
sS'pv'
p5
S'2.23.2'
p6
sS'depends'
p7
S'bison-native flex-native zlib-native'
p8
sS'src_uri'
p9
S'     ftp://ftp.gnu.org/gnu/binutils/binutils-2.23.2.tar.bz2      file://binutils-uclibc-100-uclibc-conf.patch      file://binutils-uclibc-300-001_ld_makefile_patch.patch      file://binutils-uclibc-300-006_better_file_error.patch      file://binutils-uclibc-300-012_check_ldrunpath_length.patch      file://binutils-uclibc-gas-needs-libm.patch      file://binutils-x86_64_i386_biarch.patch      file://libtool-2.4-update.patch      file://libiberty_path_fix.patch      file://binutils-poison.patch      file://libtool-rpath-fix.patch      file://binutils-armv5e.patch      file://mips64-default-ld-emulation.patch           file://backport/0001-doc-binutils.texi-elfedit-Fix-use-of-itemx-in-table.patch      file://backport/0001-ld.texinfo-Replace-with-when-it-is-part-of-the-text.patch      file://backport/binutils-fix-ineffectual-zero-of-cache.patch      file://backport/binutils-replace-strncat-with-strcat.patch       file://backport/0001-config-tc-ppc.c-md_assemble-Do-not-generate-APUinfo-.patch       file://backport/binutils-fix-skip-whitespace-pr14887.patch      file://backport/aarch64-crn.patch      file://backport/aarch64-movi.patch      file://backport/0001-config-tc-ppc.c-PPC_VLE_SPLIT16A-Delete-unused-macro.patch      file://backport/0002-config-tc-ppc.c-md_apply_fix-Sign-extend-fieldval-un.patch       file://binutils-fix-over-array-bounds-issue.patch      file://binutils-xlp-support.patch      '
p10
sS'pe'
p11
S'0'
p12
sS'bbfile'
p13
S'/OE/webos/owpb/openwebos-ports/openembedded-core/meta/recipes-devtools/binutils/binutils-cross_2.23.2.bb'
p14
sS'srcrev'
p15
(lp16
sS'pn'
p17
S'binutils-cross'
p18
s.(dp0
S'pr'
p1
S'r0'
p2
sS'packagelist'
p3
(lp4
S'linux-libc-headers-dbg'
p5
aS'linux-libc-headers-staticdev'
p6
aS'linux-libc-headers-dev'
p7
aS'linux-libc-headers-doc'
p8
aS'linux-libc-headers-locale'
p9
aS'linux-libc-headers'
p10
asS'pv'
p11
S'3.8'
p12
sS'depends'
p13
S'unifdef-native'
p14
sS'src_uri'
p15
S'http://kernel.org/pub/linux/kernel/v3.0/linux-3.8.tar.bz2 file://scripts-Makefile.headersinst-install-headers-from-sc.patch'
p16
sS'pe'
p17
S'0'
p18
sS'bbfile'
p19
S'/OE/webos/owpb/openwebos-ports/openembedded-core/meta/recipes-kernel/linux-libc-headers/linux-libc-headers_3.8.bb'
p20
sS'srcrev'
p21
(lp22
sS'pn'
p23
S'linux-libc-headers'
p24
s.(dp0
S'pr'
p1
S'r0'
p2
sS'packagelist'
p3
(lp4
sS'pv'
p5
S'3.9.0'
p6
sS'depends'
p7
S'autoconf-native automake-native bison-native flex-native gnu-config-native gperf-native libtool-native ncurses-native pkgconfig-native'
p8
sS'src_uri'
p9
S'http://ymorin.is-a-geek.org/download/kconfig-frontends/kconfig-frontends-3.9.0.0.tar.xz'
p10
sS'pe'
p11
S'0'
p12
sS'bbfile'
p13
S'virtual:native:/OE/webos/owpb/openwebos-ports/openembedded-core/meta/recipes-devtools/kconfig-frontends/kconfig-frontends_3.9.0.bb'
p14
sS'srcrev'
p15
(lp16
sS'pn'
p17
S'kconfig-frontends-native'
p18
s.(dp0
S'pr'
p1
S'r20'
p2
sS'packagelist'
p3
(lp4
sS'pv'
p5
S'4.7.2'
p6
sS'depends'
p7
S'gmp-native libmpc-native mpfr-native virtual/arm-webos-linux-gnueabi-binutils zlib-native'
p8
sS'src_uri'
p9
S'ftp://ftp.gnu.org/gnu/gcc/gcc-4.7.2/gcc-4.7.2.tar.bz2 \t   file://gcc-4.3.1-ARCH_FLAGS_FOR_TARGET.patch \t   file://100-uclibc-conf.patch            file://gcc-uclibc-locale-ctype_touplow_t.patch            file://200-uclibc-locale.patch             file://203-uclibc-locale-no__x.patch;            file://204-uclibc-locale-wchar_fix.patch;            file://205-uclibc-locale-update.patch;            file://301-missing-execinfo_h.patch             file://302-c99-snprintf.patch             file://303-c99-complex-ugly-hack.patch             file://304-index_macro.patch             file://305-libmudflap-susv3-legacy.patch             file://306-libstdc++-namespace.patch             file://740-sh-pr24836.patch             file://800-arm-bigendian.patch             file://gcc-poison-system-directories.patch            file://gcc-poison-dir-extend.patch            file://gcc-4.3.3-SYSROOT_CFLAGS_FOR_TARGET.patch \t   file://64bithack.patch \t   file://optional_libstdc.patch \t   file://disable_relax_pic_calls_flag.patch \t   file://COLLECT_GCC_OPTIONS.patch            file://use-defaults.h-and-t-oe-in-B.patch \t   file://ppc_with_cpu.patch \t   file://ppce5500-e6500-support.patch \t   file://rs6000-tables.patch \t   file://define_insn_reservation.patch \t   file://pr32219.patch \t   file://fortran-cross-compile-hack.patch \t   file://libgcc-sjlj-check.patch \t   file://cpp-honor-sysroot.patch \t   file://mips64-default-n64.patch \t   file://GLIBC_DYNAMIC_LINKER.patch \t   file://arm-hard-float-loader.patch \t   file://gcc-argument-list-too-long.patch \t   file://fix-g++-sysroot.patch \t   file://disablesdt.patch \t   file://libtool.patch \t   file://gcc-armv4-pass-fix-v4bx-to-ld.patch \t   file://ppc_no_crtsavres.patch \t   file://0001-crtstuff.c-USE_PT_GNU_EH_FRAME-Define-for-systems-us.patch \t   file://0001-Makefile.in-vis_hide-gen-hide-list-Do-not-make-defin.patch \t   file://use-ml-conf-files-from-B.patch \t   file://wcast-qual-PR55383.patch \t   file://disable-texinfo-5.patch \t   file://avoid-oob-array-access.patch \t  '
p10
sS'pe'
p11
S'0'
p12
sS'bbfile'
p13
S'/OE/webos/owpb/openwebos-ports/openembedded-core/meta/recipes-devtools/gcc/gcc-cross-initial_4.7.bb'
p14
sS'srcrev'
p15
(lp16
sS'pn'
p17
S'gcc-cross-initial'
p18
s.(dp0
S'pr'
p1
S'r3'
p2
sS'packagelist'
p3
(lp4
sS'pv'
p5
S'2.17'
p6
sS'depends'
p7
S'autoconf-native automake-native gnu-config-native kconfig-frontends-native libtool-native linux-libc-headers virtual/arm-webos-linux-gnueabi-gcc-initial'
p8
sS'src_uri'
p9
S'http://downloads.yoctoproject.org/releases/eglibc/eglibc-2.17-svnr22064.tar.bz2            file://eglibc-svn-arm-lowlevellock-include-tls.patch            file://IO-acquire-lock-fix.patch            file://mips-rld-map-check.patch            file://etc/ld.so.conf            file://generate-supported.mk            file://glibc.fix_sqrt2.patch            file://multilib_readlib.patch            file://ppc-sqrt_finite.patch            file://GLRO_dl_debug_mask.patch            file://initgroups_keys.patch            file://eglibc_fix_findidx_parameters.patch            file://ppc_slow_ieee754_sqrt.patch            file://fileops-without-wchar-io.patch            file://add_resource_h_to_wait_h.patch            file://0001-eglibc-menuconfig-support.patch            file://0002-eglibc-menuconfig-hex-string-options.patch            file://0003-eglibc-menuconfig-build-instructions.patch            file://fsl-ppc-no-fsqrt.patch            file://0001-R_ARM_TLS_DTPOFF32.patch            file://tzselect-sh.patch            file://tzselect-awk.patch            file://0001-eglibc-run-libm-err-tab.pl-with-specific-dirs-in-S.patch            file://fix-tibetian-locales.patch                       file://eglibc-2.17/eglibc-2.17-r22178.patch            file://eglibc-2.17/eglibc-2.17-PR15003-r22243.patch                      '
p10
sS'pe'
p11
S'0'
p12
sS'bbfile'
p13
S'/OE/webos/owpb/openwebos-ports/openembedded-core/meta/recipes-core/eglibc/eglibc-initial_2.17.bb'
p14
sS'srcrev'
p15
(lp16
sS'pn'
p17
S'eglibc-initial'
p18
s.(dp0
S'pr'
p1
S'r3'
p2
sS'packagelist'
p3
(lp4
S'eglibc-dbg'
p5
aS'catchsegv'
p6
aS'sln'
p7
aS'nscd'
p8
aS'ldd'
p9
aS'eglibc-utils'
p10
aS'eglibc-thread-db'
p11
aS'eglibc-pic'
p12
aS'libcidn'
p13
aS'libmemusage'
p14
aS'libsegfault'
p15
aS'eglibc-pcprofile'
p16
aS'libsotruss'
p17
aS'eglibc'
p18
aS'eglibc-extra-nss'
p19
aS'eglibc-dev'
p20
aS'eglibc-staticdev'
p21
aS'eglibc-doc'
p22
asS'pv'
p23
S'2.17'
p24
sS'depends'
p25
S'autoconf-native automake-native gnu-config-native gperf-native kconfig-frontends-native libtool-native linux-libc-headers virtual/arm-webos-linux-gnueabi-gcc-initial virtual/arm-webos-linux-gnueabi-libc-initial'
p26
sS'src_uri'
p27
S'http://downloads.yoctoproject.org/releases/eglibc/eglibc-2.17-svnr22064.tar.bz2            file://eglibc-svn-arm-lowlevellock-include-tls.patch            file://IO-acquire-lock-fix.patch            file://mips-rld-map-check.patch            file://etc/ld.so.conf            file://generate-supported.mk            file://glibc.fix_sqrt2.patch            file://multilib_readlib.patch            file://ppc-sqrt_finite.patch            file://GLRO_dl_debug_mask.patch            file://initgroups_keys.patch            file://eglibc_fix_findidx_parameters.patch            file://ppc_slow_ieee754_sqrt.patch            file://fileops-without-wchar-io.patch            file://add_resource_h_to_wait_h.patch            file://0001-eglibc-menuconfig-support.patch            file://0002-eglibc-menuconfig-hex-string-options.patch            file://0003-eglibc-menuconfig-build-instructions.patch            file://fsl-ppc-no-fsqrt.patch            file://0001-R_ARM_TLS_DTPOFF32.patch            file://tzselect-sh.patch            file://tzselect-awk.patch            file://0001-eglibc-run-libm-err-tab.pl-with-specific-dirs-in-S.patch            file://fix-tibetian-locales.patch                       file://eglibc-2.17/eglibc-2.17-r22178.patch            file://eglibc-2.17/eglibc-2.17-PR15003-r22243.patch                      '
p28
sS'pe'
p29
S'0'
p30
sS'bbfile'
p31
S'/OE/webos/owpb/openwebos-ports/openembedded-core/meta/recipes-core/eglibc/eglibc_2.17.bb'
p32
sS'srcrev'
p33
(lp34
sS'pn'
p35
S'eglibc'
p36
s.(dp0
S'pr'
p1
S'r15.0'
p2
sS'packagelist'
p3
(lp4
sS'pv'
p5
S'1.0.1e'
p6
sS'depends'
p7
S'ocf-linux-native perl-native-runtime-native pkgconfig-native'
p8
sS'src_uri'
p9
S'http://www.openssl.org/source/openssl-1.0.1e.tar.gz            file://configure-targets.patch             file://shared-libs.patch             file://oe-ldflags.patch             file://engines-install-in-libdir-ssl.patch             file://openssl-fix-link.patch             file://debian/version-script.patch             file://debian/pic.patch             file://debian/c_rehash-compat.patch             file://debian/ca.patch             file://debian/make-targets.patch             file://debian/no-rpath.patch             file://debian/man-dir.patch             file://debian/man-section.patch             file://debian/no-symbolic.patch             file://debian/debian-targets.patch             file://openssl_fix_for_x32.patch             file://openssl-fix-doc.patch             file://fix-cipher-des-ede3-cfb1.patch             file://find.pl            '
p10
sS'pe'
p11
S'0'
p12
sS'bbfile'
p13
S'virtual:native:/OE/webos/owpb/openwebos-ports/openembedded-core/meta/recipes-connectivity/openssl/openssl_1.0.1e.bb'
p14
sS'srcrev'
p15
(lp16
sS'pn'
p17
S'openssl-native'
p18
s.(dp0
S'pr'
p1
S'r4'
p2
sS'packagelist'
p3
(lp4
sS'pv'
p5
S'2.4.46'
p6
sS'depends'
p7
S'autoconf-native automake-native gettext-minimal-native gnu-config-native libtool-native ncurses-native'
p8
sS'src_uri'
p9
S'http://download.savannah.gnu.org/releases/attr/attr-2.4.46.src.tar.gz            file://generic-syscalls.patch             file://relative-libdir.patch;striplevel=0            '
p10
sS'pe'
p11
S'0'
p12
sS'bbfile'
p13
S'virtual:native:/OE/webos/owpb/openwebos-ports/openembedded-core/meta/recipes-support/attr/attr_2.4.46.bb'
p14
sS'srcrev'
p15
(lp16
sS'pn'
p17
S'attr-native'
p18
s.(dp0
S'pr'
p1
S'r11'
p2
sS'packagelist'
p3
(lp4
sS'pv'
p5
S'0.148'
p6
sS'depends'
p7
S'autoconf-native automake-native bzip2-native gettext-minimal-native gnu-config-native libtool-native libtool-native virtual/libintl-native zlib-native'
p8
sS'src_uri'
p9
S'https://fedorahosted.org/releases/e/l/elfutils/elfutils-0.148.tar.bz2         file://redhat-portability.diff         file://redhat-robustify.diff         file://hppa_backend.diff         file://arm_backend.diff         file://mips_backend.diff         file://m68k_backend.diff         file://do-autoreconf.diff         file://testsuite-ignore-elflint.diff         file://elf_additions.diff \tfile://elfutils-fsize.patch \tfile://remove-unused.patch \tfile://mempcpy.patch \tfile://fix_for_gcc-4.7.patch \tfile://dso-link-change.patch \tfile://nm-Fix-size-passed-to-snprintf-for-invalid-sh_name-case.patch \tfile://elfutils-ar-c-fix-num-passed-to-memset.patch          file://i386_dis.h         file://x86_64_dis.h '
p10
sS'pe'
p11
S'0'
p12
sS'bbfile'
p13
S'virtual:native:/OE/webos/owpb/openwebos-ports/openembedded-core/meta/recipes-devtools/elfutils/elfutils_0.148.bb'
p14
sS'srcrev'
p15
(lp16
sS'pn'
p17
S'elfutils-native'
p18
s.(dp0
S'pr'
p1
S'r0'
p2
sS'packagelist'
p3
(lp4
sS'pv'
p5
S'5.14'
p6
sS'depends'
p7
S'autoconf-native automake-native gnu-config-native libtool-native zlib-native'
p8
sS'src_uri'
p9
S'ftp://ftp.astron.com/pub/file/file-5.14.tar.gz            file://dump            file://filesystems'
p10
sS'pe'
p11
S'0'
p12
sS'bbfile'
p13
S'virtual:native:/OE/webos/owpb/openwebos-ports/openembedded-core/meta/recipes-devtools/file/file_5.14.bb'
p14
sS'srcrev'
p15
(lp16
sS'pn'
p17
S'file-native'
p18
s.(dp0
S'pr'
p1
S'r4'
p2
sS'packagelist'
p3
(lp4
sS'pv'
p5
S'6.2'
p6
sS'depends'
p7
S'autoconf-native automake-native gnu-config-native libtool-native ncurses-native'
p8
sS'src_uri'
p9
S'ftp://ftp.gnu.org/gnu/readline/readline-6.2.tar.gz;name=archive            file://configure-fix.patch            file://norpath.patch            file://acinclude.m4 ftp://ftp.gnu.org/gnu/readline/readline-6.2-patches/readline62-001;name=patch1;apply=yes;striplevel=0 ftp://ftp.gnu.org/gnu/readline/readline-6.2-patches/readline62-002;name=patch2;apply=yes;striplevel=0 ftp://ftp.gnu.org/gnu/readline/readline-6.2-patches/readline62-003;name=patch3;apply=yes;striplevel=0 ftp://ftp.gnu.org/gnu/readline/readline-6.2-patches/readline62-004;name=patch4;apply=yes;striplevel=0 '
p10
sS'pe'
p11
S'0'
p12
sS'bbfile'
p13
S'virtual:native:/OE/webos/owpb/openwebos-ports/openembedded-core/meta/recipes-core/readline/readline_6.2.bb'
p14
sS'srcrev'
p15
(lp16
sS'pn'
p17
S'readline-native'
p18
s.(dp0
S'pr'
p1
S'r5'
p2
sS'packagelist'
p3
(lp4
sS'pv'
p5
S'1.0.6'
p6
sS'depends'
p7
S'autoconf-native automake-native gnu-config-native libtool-native'
p8
sS'src_uri'
p9
S'http://www.bzip.org/1.0.6/bzip2-1.0.6.tar.gz            file://configure.ac \t   file://Makefile.am'
p10
sS'pe'
p11
S'0'
p12
sS'bbfile'
p13
S'virtual:native:/OE/webos/owpb/openwebos-ports/openembedded-core/meta/recipes-extended/bzip2/bzip2_1.0.6.bb'
p14
sS'srcrev'
p15
(lp16
sS'pn'
p17
S'bzip2-native'
p18
s.(dp0
S'pr'
p1
S'r0.1'
p2
sS'packagelist'
p3
(lp4
sS'pv'
p5
S'2.7.3'
p6
sS'depends'
p7
S'autoconf-native automake-native bzip2-replacement-native gnu-config-native libtool-native openssl-native readline-native sqlite3-native zlib-native'
p8
sS'src_uri'
p9
S'http://www.python.org/ftp/python/2.7.3/Python-2.7.3.tar.bz2            file://05-enable-ctypes-cross-build.patch            file://06-ctypes-libffi-fix-configure.patch            file://10-distutils-fix-swig-parameter.patch            file://11-distutils-never-modify-shebang-line.patch            file://12-distutils-prefix-is-inside-staging-area.patch            file://debug.patch            file://unixccompiler.patch            file://nohostlibs.patch            file://multilib.patch            file://add-md5module-support.patch            file://builddir.patch            '
p10
sS'pe'
p11
S'0'
p12
sS'bbfile'
p13
S'/OE/webos/owpb/openwebos-ports/openembedded-core/meta/recipes-devtools/python/python-native_2.7.3.bb'
p14
sS'srcrev'
p15
(lp16
sS'pn'
p17
S'python-native'
p18
s.(dp0
S'pr'
p1
S'r0'
p2
sS'packagelist'
p3
(lp4
sS'pv'
p5
S'51.2'
p6
sS'depends'
p7
S'autoconf-native automake-native gnu-config-native libtool-native pkgconfig-native'
p8
sS'src_uri'
p9
S'http://download.icu-project.org/files/icu4c/51.2/icu4c-51_2-src.tgz'
p10
sS'pe'
p11
S'0'
p12
sS'bbfile'
p13
S'virtual:native:/OE/webos/owpb/openwebos-ports/openembedded-core/meta/recipes-support/icu/icu_51.2.bb'
p14
sS'srcrev'
p15
(lp16
sS'pn'
p17
S'icu-native'
p18
s.(dp0
S'pr'
p1
S'r0'
p2
sS'packagelist'
p3
(lp4
sS'pv'
p5
S'5.3.21'
p6
sS'depends'
p7
S'autoconf-native automake-native gnu-config-native libtool-native'
p8
sS'src_uri'
p9
S'http://download.oracle.com/berkeley-db/db-5.3.21.tar.gz file://arm-thumb-mutex_db5.patch;patchdir=..'
p10
sS'pe'
p11
S'0'
p12
sS'bbfile'
p13
S'virtual:native:/OE/webos/owpb/openwebos-ports/openembedded-core/meta/recipes-support/db/db_5.3.21.bb'
p14
sS'srcrev'
p15
(lp16
sS'pn'
p17
S'db-native'
p18
s.(dp0
S'pr'
p1
S'r3'
p2
sS'packagelist'
p3
(lp4
sS'pv'
p5
S'4.2.1'
p6
sS'depends'
p7
S'autoconf-native automake-native gnu-config-native icu-native libtool-native'
p8
sS'src_uri'
p9
S'http://downloads.sourceforge.net/beecrypt/beecrypt-4.2.1.tar.gz \t file://disable-icu-check.patch \t file://fix-security.patch          file://fix-for-gcc-4.7.patch'
p10
sS'pe'
p11
S'0'
p12
sS'bbfile'
p13
S'virtual:native:/OE/webos/owpb/openwebos-ports/openembedded-core/meta/recipes-support/beecrypt/beecrypt_4.2.1.bb'
p14
sS'srcrev'
p15
(lp16
sS'pn'
p17
S'beecrypt-native'
p18
s.(dp0
S'pr'
p1
S'r2'
p2
sS'packagelist'
p3
(lp4
sS'pv'
p5
S'1.6.2'
p6
sS'depends'
p7
S'autoconf-native automake-native gnu-config-native libtool-native'
p8
sS'src_uri'
p9
S'ftp://ftp.ossp.org/pkg/lib/uuid/uuid-1.6.2.tar.gz \t   file://0001-Change-library-name.patch \t   file://0002-uuid-preserve-m-option-status-in-v-option-handling.patch \t   file://0003-Fix-whatis-entries.patch \t   file://0004-fix-data-uuid-from-string.patch \t   file://uuid-libtool.patch \t   file://uuid-nostrip.patch            file://install-pc.patch \t  '
p10
sS'pe'
p11
S'0'
p12
sS'bbfile'
p13
S'virtual:native:/OE/webos/owpb/openwebos-ports/openembedded-core/meta/recipes-devtools/ossp-uuid/ossp-uuid_1.6.2.bb'
p14
sS'srcrev'
p15
(lp16
sS'pn'
p17
S'ossp-uuid-native'
p18
s.(dp0
S'pr'
p1
S'r3'
p2
sS'packagelist'
p3
(lp4
sS'pv'
p5
S'1.16'
p6
sS'depends'
p7
S'autoconf-native automake-native gettext-minimal-native gnu-config-native libtool-native'
p8
sS'src_uri'
p9
S'http://rpm5.org/files/popt/popt-1.16.tar.gz            file://pkgconfig_fix.patch            file://popt_fix_for_automake-1.12.patch            file://disable_tests.patch           '
p10
sS'pe'
p11
S'0'
p12
sS'bbfile'
p13
S'virtual:native:/OE/webos/owpb/openwebos-ports/openembedded-core/meta/recipes-support/popt/popt_1.16.bb'
p14
sS'srcrev'
p15
(lp16
sS'pn'
p17
S'popt-native'
p18
s.(dp0
S'pr'
p1
S'r3'
p2
sS'packagelist'
p3
(lp4
sS'pv'
p5
S'2.2.51'
p6
sS'depends'
p7
S'attr-native autoconf-native automake-native gettext-minimal-native gnu-config-native libtool-native'
p8
sS'src_uri'
p9
S'http://download.savannah.gnu.org/releases/acl/acl-2.2.51.src.tar.gz file://relative-libdir.patch;striplevel=0            '
p10
sS'pe'
p11
S'0'
p12
sS'bbfile'
p13
S'virtual:native:/OE/webos/owpb/openwebos-ports/openembedded-core/meta/recipes-support/attr/acl_2.2.51.bb'
p14
sS'srcrev'
p15
(lp16
sS'pn'
p17
S'acl-native'
p18
s.(dp0
S'pr'
p1
S'r0'
p2
sS'packagelist'
p3
(lp4
sS'pv'
p5
S'8.33'
p6
sS'depends'
p7
S'autoconf-native automake-native bzip2-native gnu-config-native libtool-native zlib-native'
p8
sS'src_uri'
p9
S'http://downloads.sourceforge.net/project/pcre/pcre/8.33/pcre-8.33.tar.bz2            file://pcre-cross.patch            file://fix-pcre-name-collision.patch'
p10
sS'pe'
p11
S'0'
p12
sS'bbfile'
p13
S'virtual:native:/OE/webos/owpb/openwebos-ports/openembedded-core/meta/recipes-support/libpcre/libpcre_8.33.bb'
p14
sS'srcrev'
p15
(lp16
sS'pn'
p17
S'libpcre-native'
p18
s.(dp0
S'pr'
p1
S'r4'
p2
sS'packagelist'
p3
(lp4
sS'pv'
p5
S'2.23.2'
p6
sS'depends'
p7
S'autoconf-native automake-native bison-native bison-native flex-native flex-native gettext-minimal-native gnu-config-native libtool-native zlib-native zlib-native'
p8
sS'src_uri'
p9
S'     ftp://ftp.gnu.org/gnu/binutils/binutils-2.23.2.tar.bz2      file://binutils-uclibc-100-uclibc-conf.patch      file://binutils-uclibc-300-001_ld_makefile_patch.patch      file://binutils-uclibc-300-006_better_file_error.patch      file://binutils-uclibc-300-012_check_ldrunpath_length.patch      file://binutils-uclibc-gas-needs-libm.patch      file://binutils-x86_64_i386_biarch.patch      file://libtool-2.4-update.patch      file://libiberty_path_fix.patch      file://binutils-poison.patch      file://libtool-rpath-fix.patch      file://binutils-armv5e.patch      file://mips64-default-ld-emulation.patch           file://backport/0001-doc-binutils.texi-elfedit-Fix-use-of-itemx-in-table.patch      file://backport/0001-ld.texinfo-Replace-with-when-it-is-part-of-the-text.patch      file://backport/binutils-fix-ineffectual-zero-of-cache.patch      file://backport/binutils-replace-strncat-with-strcat.patch       file://backport/0001-config-tc-ppc.c-md_assemble-Do-not-generate-APUinfo-.patch       file://backport/binutils-fix-skip-whitespace-pr14887.patch      file://backport/aarch64-crn.patch      file://backport/aarch64-movi.patch      file://backport/0001-config-tc-ppc.c-PPC_VLE_SPLIT16A-Delete-unused-macro.patch      file://backport/0002-config-tc-ppc.c-md_apply_fix-Sign-extend-fieldval-un.patch       file://binutils-fix-over-array-bounds-issue.patch      file://binutils-xlp-support.patch      '
p10
sS'pe'
p11
S'0'
p12
sS'bbfile'
p13
S'virtual:native:/OE/webos/owpb/openwebos-ports/openembedded-core/meta/recipes-devtools/binutils/binutils_2.23.2.bb'
p14
sS'srcrev'
p15
(lp16
sS'pn'
p17
S'binutils-native'
p18
s.(dp0
S'pr'
p1
S'r63'
p2
sS'packagelist'
p3
(lp4
sS'pv'
p5
S'5.4.9'
p6
sS'depends'
p7
S'acl-native attr-native autoconf-native automake-native beecrypt-native bison-native bzip2-native db-native elfutils-native file-native gettext-minimal-native gnu-config-native libpcre-native libtool-native openssl-native ossp-uuid-native popt-native python-native zlib-native'
p8
sS'src_uri'
p9
S'http://www.rpm5.org/files/rpm/rpm-5.4/rpm-5.4.9-0.20120508.src.rpm;extract=rpm-5.4.9.tar.gz \t   file://rpm-log-auto-rm.patch \t   file://rpm-db-reduce.patch \t   file://perfile_rpmdeps.sh \t   file://rpm-autogen.patch \t   file://rpm-libsql-fix.patch \t   file://header-include-fix.patch \t   file://rpm-platform.patch \t   file://rpm-showrc.patch \t   file://rpm-solvedb.patch \t   file://rpm-tools-mtree-LDFLAGS.patch \t   file://rpm-fileclass.patch \t   file://rpm-canonarch.patch \t   file://rpm-no-loopmsg.patch \t   file://rpm-scriptletexechelper.patch \t   file://pythondeps.sh \t   file://rpmdeps-oecore.patch \t   file://rpm-resolvedep.patch \t   file://rpm-respect-arch.patch \t   file://rpm-no-perl-urpm.patch \t   file://rpm-macros.patch \t   file://rpm-lua.patch \t   file://rpm-ossp-uuid.patch \t   file://rpm-packageorigin.patch \t   file://rpm-pkgconfigdeps.patch \t   file://uclibc-support.patch \t   file://rpmatch.patch \t   file://fstack-protector-configure-check.patch \t   file://dbconvert.patch \t   file://rpm-uuid-include.patch \t   file://makefile-am-exec-hook.patch \t   file://rpm-stub-out-git_strerror.patch \t   file://rpm-db_buffer_small.patch \t   file://rpm-py-init.patch \t   file://python-rpm-rpmsense.patch \t   file://rpm-reloc-macros.patch \t   file://rpm-platform2.patch \t   file://rpm-remove-sykcparse-decl.patch \t   file://debugedit-segv.patch      file://rpm-platform-file-fix.patch \t  '
p10
sS'pe'
p11
S'0'
p12
sS'bbfile'
p13
S'virtual:native:/OE/webos/owpb/openwebos-ports/openembedded-core/meta/recipes-devtools/rpm/rpm_5.4.9.bb'
p14
sS'srcrev'
p15
(lp16
sS'pn'
p17
S'rpm-native'
p18
s.(dp0
S'pr'
p1
S'r0'
p2
sS'packagelist'
p3
(lp4
sS'pv'
p5
S'1.0+gitAUTOINC+4e313edb12'
p6
sS'depends'
p7
S'autoconf-native automake-native binutils-native elfutils-native gnu-config-native libtool-native'
p8
sS'src_uri'
p9
S'git://git.yoctoproject.org/prelink-cross.git;protocol=git            file://prelink.conf            file://prelink.cron.daily            file://prelink.default \t   file://macros.prelink'
p10
sS'pe'
p11
S'0'
p12
sS'bbfile'
p13
S'virtual:native:/OE/webos/owpb/openwebos-ports/openembedded-core/meta/recipes-devtools/prelink/prelink_git.bb'
p14
sS'srcrev'
p15
(lp16
S'4e313edb125db215d4c456ce62c74ee16841a365'
p17
asS'pn'
p18
S'prelink-native'
p19
s.(dp0
S'pr'
p1
S'r1'
p2
sS'packagelist'
p3
(lp4
sS'pv'
p5
S'2.3'
p6
sS'depends'
p7
S'zlib-native'
p8
sS'src_uri'
p9
S'http://zlib.net/pigz/pigz-2.3.tar.gz            file://ldflags.patch'
p10
sS'pe'
p11
S'0'
p12
sS'bbfile'
p13
S'virtual:native:/OE/webos/owpb/openwebos-ports/openembedded-core/meta/recipes-extended/pigz/pigz_2.3.bb'
p14
sS'srcrev'
p15
(lp16
sS'pn'
p17
S'pigz-native'
p18
s.(dp0
S'pr'
p1
S'r5'
p2
sS'packagelist'
p3
(lp4
sS'pv'
p5
S'2.22'
p6
sS'depends'
p7
S'perl-native-runtime'
p8
sS'src_uri'
p9
S'ftp://ftp.debian.org/debian/pool/main/libc/libcap2/libcap2_2.22.orig.tar.gz'
p10
sS'pe'
p11
S'0'
p12
sS'bbfile'
p13
S'virtual:native:/OE/webos/owpb/openwebos-ports/openembedded-core/meta/recipes-support/libcap/libcap_2.22.bb'
p14
sS'srcrev'
p15
(lp16
sS'pn'
p17
S'libcap-native'
p18
s.(dp0
S'pr'
p1
S'r1'
p2
sS'packagelist'
p3
(lp4
sS'pv'
p5
S'2.06'
p6
sS'depends'
p7
S'autoconf-native automake-native gnu-config-native libtool-native'
p8
sS'src_uri'
p9
S'http://www.oberhumer.com/opensource/lzo/download/lzo-2.06.tar.gz            file://acinclude.m4            '
p10
sS'pe'
p11
S'0'
p12
sS'bbfile'
p13
S'virtual:native:/OE/webos/owpb/openwebos-ports/openembedded-core/meta/recipes-support/lzo/lzo_2.06.bb'
p14
sS'srcrev'
p15
(lp16
sS'pn'
p17
S'lzo-native'
p18
s.(dp0
S'pr'
p1
S'r0'
p2
sS'packagelist'
p3
(lp4
sS'pv'
p5
S'2.1.0'
p6
sS'depends'
p7
S'autoconf-native automake-native gnu-config-native gzip-native libtool-native'
p8
sS'src_uri'
p9
S'http://downloads.sourceforge.net/expat/expat-2.1.0.tar.gz            file://autotools.patch'
p10
sS'pe'
p11
S'0'
p12
sS'bbfile'
p13
S'virtual:native:/OE/webos/owpb/openwebos-ports/openembedded-core/meta/recipes-core/expat/expat_2.1.0.bb'
p14
sS'srcrev'
p15
(lp16
sS'pn'
p17
S'expat-native'
p18
s.(dp0
S'pr'
p1
S'r0'
p2
sS'packagelist'
p3
(lp4
sS'pv'
p5
S'1.11'
p6
sS'depends'
p7
S'autoconf-native automake-native gettext-minimal-native gnu-config-native libtool-native pkgconfig-native'
p8
sS'src_uri'
p9
S'ftp://ftp.gnupg.org/gcrypt/libgpg-error/libgpg-error-1.11.tar.bz2            file://pkgconfig.patch'
p10
sS'pe'
p11
S'0'
p12
sS'bbfile'
p13
S'virtual:native:/OE/webos/owpb/openwebos-ports/openembedded-core/meta/recipes-support/libgpg-error/libgpg-error_1.11.bb'
p14
sS'srcrev'
p15
(lp16
sS'pn'
p17
S'libgpg-error-native'
p18
s.(dp0
S'pr'
p1
S'r0'
p2
sS'packagelist'
p3
(lp4
sS'pv'
p5
S'1.5.2'
p6
sS'depends'
p7
S'autoconf-native automake-native gnu-config-native libcap-native libgpg-error-native libtool-native pkgconfig-native'
p8
sS'src_uri'
p9
S'ftp://ftp.gnupg.org/gcrypt/libgcrypt/libgcrypt-1.5.2.tar.gz            file://add-pkgconfig-support.patch'
p10
sS'pe'
p11
S'0'
p12
sS'bbfile'
p13
S'virtual:native:/OE/webos/owpb/openwebos-ports/openembedded-core/meta/recipes-support/libgcrypt/libgcrypt_1.5.2.bb'
p14
sS'srcrev'
p15
(lp16
sS'pn'
p17
S'libgcrypt-native'
p18
s.(dp0
S'pr'
p1
S'r0'
p2
sS'packagelist'
p3
(lp4
sS'pv'
p5
S'3.3'
p6
sS'depends'
p7
S'autoconf-native automake-native gnu-config-native libtool-native'
p8
sS'src_uri'
p9
S'ftp://ftp.gnu.org/gnu/libtasn1/libtasn1-3.3.tar.gz            file://libtasn1_fix_for_automake_1.12.patch            file://dont-depend-on-help2man.patch            '
p10
sS'pe'
p11
S'0'
p12
sS'bbfile'
p13
S'virtual:native:/OE/webos/owpb/openwebos-ports/openembedded-core/meta/recipes-support/gnutls/libtasn1_3.3.bb'
p14
sS'srcrev'
p15
(lp16
sS'pn'
p17
S'libtasn1-native'
p18
s.(dp0
S'pr'
p1
S'r0'
p2
sS'packagelist'
p3
(lp4
sS'pv'
p5
S'2.23.1'
p6
sS'depends'
p7
S'autoconf-native automake-native gettext-minimal-native gnu-config-native libtool-native lzo-native ncurses-native pkgconfig-native zlib-native'
p8
sS'src_uri'
p9
S'http://kernel.org/pub/linux/utils/util-linux/v2.23/util-linux-2.23.1.tar.bz2            file://MCONFIG            file://defines.h            file://make_include            file://swapargs.h             file://util-linux-ng-replace-siginterrupt.patch             file://util-linux-ng-2.16-mount_lock_path.patch             file://uclibc-__progname-conflict.patch             file://configure-sbindir.patch             file://fix-configure.patch             file://util-linux-native.patch '
p10
sS'pe'
p11
S'0'
p12
sS'bbfile'
p13
S'virtual:native:/OE/webos/owpb/openwebos-ports/openembedded-core/meta/recipes-core/util-linux/util-linux_2.23.1.bb'
p14
sS'srcrev'
p15
(lp16
sS'pn'
p17
S'util-linux-native'
p18
s.(dp0
S'pr'
p1
S'r3'
p2
sS'packagelist'
p3
(lp4
sS'pv'
p5
S'1.10'
p6
sS'depends'
p7
S'autoconf-native automake-native gettext-minimal-native gnu-config-native libtool-native'
p8
sS'src_uri'
p9
S'ftp://ftp.gnu.org/gnu/gdbm/gdbm-1.10.tar.gz'
p10
sS'pe'
p11
S'0'
p12
sS'bbfile'
p13
S'virtual:native:/OE/webos/owpb/openwebos-ports/openembedded-core/meta/recipes-support/gdbm/gdbm_1.10.bb'
p14
sS'srcrev'
p15
(lp16
sS'pn'
p17
S'gdbm-native'
p18
s.(dp0
S'pr'
p1
S'r2'
p2
sS'packagelist'
p3
(lp4
sS'pv'
p5
S'1.4.6'
p6
sS'depends'
p7
S'autoconf-native automake-native gnu-config-native libtool-native util-linux-native'
p8
sS'src_uri'
p9
S'http://www.apache.org/dist/apr/apr-1.4.6.tar.bz2            file://configure_fixes.patch            file://cleanup.patch            file://configfix.patch'
p10
sS'pe'
p11
S'0'
p12
sS'bbfile'
p13
S'virtual:native:/OE/webos/owpb/openwebos-ports/openembedded-core/meta/recipes-support/apr/apr_1.4.6.bb'
p14
sS'srcrev'
p15
(lp16
sS'pn'
p17
S'apr-native'
p18
s.(dp0
S'pr'
p1
S'r8.4'
p2
sS'packagelist'
p3
(lp4
sS'pv'
p5
S'2.12.23'
p6
sS'depends'
p7
S'autoconf-native automake-native gettext-minimal-native gnu-config-native libcap-native libgcrypt-native libtasn1-native libtool-native lzo-native pkgconfig-native readline-native zlib-native'
p8
sS'src_uri'
p9
S'ftp://ftp.gnutls.org/gcrypt/gnutls/v2.12/gnutls-2.12.23.tar.bz2 file://gnutls-openssl.patch             file://correct_rpl_gettimeofday_signature.patch             file://configure-fix.patch             file://avoid_AM_PROG_MKDIR_P_warning_error_with_automake_1.12.patch             file://fix-gettext-version.patch            '
p10
sS'pe'
p11
S'0'
p12
sS'bbfile'
p13
S'virtual:native:/OE/webos/owpb/openwebos-ports/openembedded-core/meta/recipes-support/gnutls/gnutls_2.12.23.bb'
p14
sS'srcrev'
p15
(lp16
sS'pn'
p17
S'gnutls-native'
p18
s.(dp0
S'pr'
p1
S'r0'
p2
sS'packagelist'
p3
(lp4
sS'pv'
p5
S'2.9.1'
p6
sS'depends'
p7
S'autoconf-native automake-native gnu-config-native libtool-native pkgconfig-native python-native'
p8
sS'src_uri'
p9
S'ftp://xmlsoft.org/libxml2/libxml2-2.9.1.tar.gz            file://libxml-64bit.patch            file://ansidecl.patch file://libxml2-CVE-2012-2871.patch \t   '
p10
sS'pe'
p11
S'0'
p12
sS'bbfile'
p13
S'virtual:native:/OE/webos/owpb/openwebos-ports/openembedded-core/meta/recipes-core/libxml/libxml2_2.9.1.bb'
p14
sS'srcrev'
p15
(lp16
sS'pn'
p17
S'libxml2-native'
p18
s.(dp0
S'pr'
p1
S'r6.1'
p2
sS'packagelist'
p3
(lp4
sS'pv'
p5
S'2.4.2'
p6
sS'depends'
p7
S'autoconf-native automake-native gnu-config-native libtool-native virtual/arm-webos-linux-gnueabi-compilerlibs virtual/arm-webos-linux-gnueabi-gcc virtual/libc'
p8
sS'src_uri'
p9
S'ftp://ftp.gnu.org/gnu/libtool/libtool-2.4.2.tar.gz            file://trailingslash.patch            file://rename-with-sysroot.patch            file://use-sysroot-in-libpath.patch            file://fix-final-rpath.patch            file://avoid_absolute_paths_for_general_utils.patch            file://fix-rpath.patch \t   file://respect-fstack-protector.patch            file://norm-rpath.patch            file://dont-depend-on-help2man.patch            file://prefix.patch file://fixinstall.patch'
p10
sS'pe'
p11
S'0'
p12
sS'bbfile'
p13
S'/OE/webos/owpb/openwebos-ports/openembedded-core/meta/recipes-devtools/libtool/libtool-cross_2.4.2.bb'
p14
sS'srcrev'
p15
(lp16
sS'pn'
p17
S'libtool-cross'
p18
s.(dp0
S'pr'
p1
S'r0'
p2
sS'packagelist'
p3
(lp4
sS'pv'
p5
S'1.5.1'
p6
sS'depends'
p7
S'apr-native autoconf-native automake-native expat-native gdbm-native gnu-config-native libtool-native'
p8
sS'src_uri'
p9
S'http://www.apache.org/dist/apr/apr-util-1.5.1.tar.gz            file://configfix.patch            file://configure_fixes.patch'
p10
sS'pe'
p11
S'0'
p12
sS'bbfile'
p13
S'virtual:native:/OE/webos/owpb/openwebos-ports/openembedded-core/meta/recipes-support/apr/apr-util_1.5.1.bb'
p14
sS'srcrev'
p15
(lp16
sS'pn'
p17
S'apr-util-native'
p18
s.(dp0
S'pr'
p1
S'r3'
p2
sS'packagelist'
p3
(lp4
sS'pv'
p5
S'0.29.6'
p6
sS'depends'
p7
S'autoconf-native automake-native expat-native gnu-config-native gnutls-native libtool-native libxml2-native pkgconfig-native zlib-native'
p8
sS'src_uri'
p9
S'http://www.webdav.org/neon/neon-0.29.6.tar.gz            file://pkgconfig.patch'
p10
sS'pe'
p11
S'0'
p12
sS'bbfile'
p13
S'virtual:native:/OE/webos/owpb/openwebos-ports/openembedded-core/meta/recipes-support/neon/neon_0.29.6.bb'
p14
sS'srcrev'
p15
(lp16
sS'pn'
p17
S'neon-native'
p18
s.(dp0
S'pr'
p1
S'r0'
p2
sS'packagelist'
p3
(lp4
sS'pv'
p5
S'1.7.10'
p6
sS'depends'
p7
S'apr-util-native autoconf-native automake-native gettext-minimal-native gnu-config-native libtool-native neon-native sqlite3-native'
p8
sS'src_uri'
p9
S'http://www.apache.org/dist/subversion/subversion-1.7.10.tar.bz2            file://libtool2.patch            file://fix-install-depends.patch '
p10
sS'pe'
p11
S'0'
p12
sS'bbfile'
p13
S'virtual:native:/OE/webos/owpb/openwebos-ports/openembedded-core/meta/recipes-devtools/subversion/subversion_1.7.10.bb'
p14
sS'srcrev'
p15
(lp16
sS'pn'
p17
S'subversion-native'
p18
s.(dp0
S'pr'
p1
S'r1'
p2
sS'packagelist'
p3
(lp4
S'opkg-config-base-dbg'
p5
aS'opkg-config-base-staticdev'
p6
aS'opkg-config-base-dev'
p7
aS'opkg-config-base-doc'
p8
aS'opkg-config-base-locale'
p9
aS'opkg-config-base'
p10
asS'pv'
p11
S'1.0'
p12
sS'depends'
p13
S'virtual/arm-webos-linux-gnueabi-compilerlibs virtual/arm-webos-linux-gnueabi-gcc virtual/libc'
p14
sS'src_uri'
p15
S''
p16
sS'pe'
p17
S'0'
p18
sS'bbfile'
p19
S'/OE/webos/owpb/openwebos-ports/openembedded-core/meta/recipes-devtools/opkg/opkg-config-base_1.0.bb'
p20
sS'srcrev'
p21
(lp22
sS'pn'
p23
S'opkg-config-base'
p24
s.(dp0
S'pr'
p1
S'r0'
p2
sS'packagelist'
p3
(lp4
S'gzip-dbg'
p5
aS'gzip-staticdev'
p6
aS'gzip-dev'
p7
aS'gzip-doc'
p8
aS'gzip-locale'
p9
aS'gzip'
p10
asS'pv'
p11
S'1.6'
p12
sS'depends'
p13
S'autoconf-native automake-native gnu-config-native libtool-cross libtool-native virtual/arm-webos-linux-gnueabi-compilerlibs virtual/arm-webos-linux-gnueabi-gcc virtual/libc virtual/update-alternatives'
p14
sS'src_uri'
p15
S'ftp://ftp.gnu.org/gnu/gzip/gzip-1.6.tar.gz file://removedoc-webos.patch'
p16
sS'pe'
p17
S'0'
p18
sS'bbfile'
p19
S'/OE/webos/owpb/openwebos-ports/openembedded-core/meta/recipes-extended/gzip/gzip_1.6.bb'
p20
sS'srcrev'
p21
(lp22
sS'pn'
p23
S'gzip'
p24
s.