(dp0
S'pr'
p1
S'r6.1'
p2
sS'packagelist'
p3
(lp4
sS'pv'
p5
S'2.4.2'
p6
sS'depends'
p7
S'autoconf-native automake-native gnu-config-native'
p8
sS'src_uri'
p9
S'ftp://ftp.gnu.org/gnu/libtool/libtool-2.4.2.tar.gz            file://trailingslash.patch            file://rename-with-sysroot.patch            file://use-sysroot-in-libpath.patch            file://fix-final-rpath.patch            file://avoid_absolute_paths_for_general_utils.patch            file://fix-rpath.patch \t   file://respect-fstack-protector.patch            file://norm-rpath.patch            file://dont-depend-on-help2man.patch            file://prefix.patch'
p10
sS'pe'
p11
S'0'
p12
sS'bbfile'
p13
S'/OE/webos/wpb/webos-ports/openembedded-core/meta/recipes-devtools/libtool/libtool-native_2.4.2.bb'
p14
sS'srcrev'
p15
(lp16
sS'pn'
p17
S'libtool-native'
p18
s.(dp0
S'pr'
p1
S'r7'
p2
sS'packagelist'
p3
(lp4
sS'pv'
p5
S'0.25'
p6
sS'depends'
p7
S'autoconf-native automake-native gnu-config-native libtool-native'
p8
sS'src_uri'
p9
S'http://pkgconfig.freedesktop.org/releases/pkg-config-0.25.tar.gz            file://autofoo.patch            file://glibconfig-sysdefs.h            file://pkg-config-native.in            file://disable-legacy.patch            file://obsolete_automake_macros.patch           '
p10
sS'pe'
p11
S'0'
p12
sS'bbfile'
p13
S'virtual:native:/OE/webos/wpb/webos-ports/openembedded-core/meta/recipes-devtools/pkgconfig/pkgconfig_0.25.bb'
p14
sS'srcrev'
p15
(lp16
sS'pn'
p17
S'pkgconfig-native'
p18
s.(dp0
S'pr'
p1
S'r0'
p2
sS'packagelist'
p3
(lp4
sS'pv'
p5
S'3071502'
p6
sS'depends'
p7
S'autoconf-native automake-native gnu-config-native libtool-native pkgconfig-native'
p8
sS'src_uri'
p9
S'http://www.sqlite.org/sqlite-autoconf-3071502.tar.gz file://removedoc-webos.patch'
p10
sS'pe'
p11
S'0'
p12
sS'bbfile'
p13
S'virtual:native:/OE/webos/wpb/webos-ports/openembedded-core/meta/recipes-support/sqlite/sqlite3_3071502.bb'
p14
sS'srcrev'
p15
(lp16
sS'pn'
p17
S'sqlite3-native'
p18
s.(dp0
S'pr'
p1
S'r3'
p2
sS'packagelist'
p3
(lp4
sS'pv'
p5
S'1.5.1'
p6
sS'depends'
p7
S'sqlite3-native'
p8
sS'src_uri'
p9
S'http://www.yoctoproject.org/downloads/pseudo/pseudo-1.5.1.tar.bz2 file://symver.patch'
p10
sS'pe'
p11
S'0'
p12
sS'bbfile'
p13
S'virtual:native:/OE/webos/wpb/webos-ports/openembedded-core/meta/recipes-devtools/pseudo/pseudo_1.5.1.bb'
p14
sS'srcrev'
p15
(lp16
sS'pn'
p17
S'pseudo-native'
p18
s.(dp0
S'pr'
p1
S'r2'
p2
sS'packagelist'
p3
(lp4
sS'pv'
p5
S'5.1.0'
p6
sS'depends'
p7
S'autoconf-native automake-native gnu-config-native libtool-native'
p8
sS'src_uri'
p9
S'ftp://ftp.gmplib.org/pub/gmp-5.1.0/gmp-5.1.0a.tar.bz2 \t   file://configure.patch \t   file://amd64.patch  file://use-includedir.patch                    file://gmp_fix_for_x32.patch                    file://187b7b1646ee.patch                    file://obsolete_automake_macros.patch                    '
p10
sS'pe'
p11
S'0'
p12
sS'bbfile'
p13
S'virtual:native:/OE/webos/wpb/webos-ports/openembedded-core/meta/recipes-support/gmp/gmp_5.1.0.bb'
p14
sS'srcrev'
p15
(lp16
sS'pn'
p17
S'gmp-native'
p18
s.(dp0
S'pr'
p1
S'r1'
p2
sS'packagelist'
p3
(lp4
sS'pv'
p5
S'2.7'
p6
sS'depends'
p7
S'autoconf-native automake-native gettext-minimal-native gettext-minimal-native gnu-config-native libtool-native'
p8
sS'src_uri'
p9
S'ftp://ftp.gnu.org/gnu/bison/bison-2.7.tar.gz \t        file://m4.patch                 file://dont-depend-on-help2man.patch \t       '
p10
sS'pe'
p11
S'0'
p12
sS'bbfile'
p13
S'virtual:native:/OE/webos/wpb/webos-ports/openembedded-core/meta/recipes-devtools/bison/bison_2.7.bb'
p14
sS'srcrev'
p15
(lp16
sS'pn'
p17
S'bison-native'
p18
s.(dp0
S'pr'
p1
S'r0'
p2
sS'packagelist'
p3
(lp4
sS'pv'
p5
S'3.1.1'
p6
sS'depends'
p7
S'autoconf-native automake-native gmp-native gnu-config-native libtool-native'
p8
sS'src_uri'
p9
S'http://www.mpfr.org/mpfr-3.1.1/mpfr-3.1.1.tar.bz2            file://long-long-thumb.patch            '
p10
sS'pe'
p11
S'0'
p12
sS'bbfile'
p13
S'virtual:native:/OE/webos/wpb/webos-ports/openembedded-core/meta/recipes-support/mpfr/mpfr_3.1.1.bb'
p14
sS'srcrev'
p15
(lp16
sS'pn'
p17
S'mpfr-native'
p18
s.(dp0
S'pr'
p1
S'r3'
p2
sS'packagelist'
p3
(lp4
sS'pv'
p5
S'2.5.35'
p6
sS'depends'
p7
S'autoconf-native automake-native gettext-minimal-native gnu-config-native libtool-native'
p8
sS'src_uri'
p9
S'http://downloads.sourceforge.net/flex/flex-2.5.35.tar.bz2  file://avoid-FORTIFY-warnings.patch             file://int-is-not-the-same-size-as-size_t.patch'
p10
sS'pe'
p11
S'0'
p12
sS'bbfile'
p13
S'virtual:native:/OE/webos/wpb/webos-ports/openembedded-core/meta/recipes-devtools/flex/flex_2.5.35.bb'
p14
sS'srcrev'
p15
(lp16
sS'pn'
p17
S'flex-native'
p18
s.(dp0
S'pr'
p1
S'r0'
p2
sS'packagelist'
p3
(lp4
sS'pv'
p5
S'3.0.4'
p6
sS'depends'
p7
S'autoconf-native automake-native gnu-config-native libtool-native'
p8
sS'src_uri'
p9
S'ftp://ftp.gnu.org/gnu/gperf/gperf-3.0.4.tar.gz'
p10
sS'pe'
p11
S'0'
p12
sS'bbfile'
p13
S'virtual:native:/OE/webos/wpb/webos-ports/openembedded-core/meta/recipes-extended/gperf/gperf_3.0.4.bb'
p14
sS'srcrev'
p15
(lp16
sS'pn'
p17
S'gperf-native'
p18
s.(dp0
S'pr'
p1
S'r1'
p2
sS'packagelist'
p3
(lp4
sS'pv'
p5
S'0.8.2'
p6
sS'depends'
p7
S'autoconf-native automake-native gmp-native gnu-config-native libtool-native mpfr-native'
p8
sS'src_uri'
p9
S'http://www.multiprecision.org/mpc/download/mpc-0.8.2.tar.gz            file://libmpc_fix_for_automake-1.12.patch'
p10
sS'pe'
p11
S'0'
p12
sS'bbfile'
p13
S'virtual:native:/OE/webos/wpb/webos-ports/openembedded-core/meta/recipes-support/libmpc/libmpc_0.8.2.bb'
p14
sS'srcrev'
p15
(lp16
sS'pn'
p17
S'libmpc-native'
p18
s.(dp0
S'pr'
p1
S'r3'
p2
sS'packagelist'
p3
(lp4
sS'pv'
p5
S'2.23.1'
p6
sS'depends'
p7
S'bison-native flex-native zlib-native'
p8
sS'src_uri'
p9
S'     ftp://ftp.gnu.org/gnu/binutils/binutils-2.23.1.tar.bz2      file://binutils-uclibc-100-uclibc-conf.patch      file://binutils-uclibc-300-001_ld_makefile_patch.patch      file://binutils-uclibc-300-006_better_file_error.patch      file://binutils-uclibc-300-012_check_ldrunpath_length.patch      file://binutils-uclibc-gas-needs-libm.patch      file://binutils-x86_64_i386_biarch.patch      file://libtool-2.4-update.patch      file://libiberty_path_fix.patch      file://binutils-poison.patch      file://libtool-rpath-fix.patch      file://binutils-armv5e.patch      file://mips64-default-ld-emulation.patch           file://backport/0001-bfd.patch      file://backport/0003-Assemble-all-sources-files-in-each-test.patch      file://backport/0005-bfd.patch      file://backport/0010-bfd-ChangeLog.patch      file://backport/0012-Fix-TLS-LD-to-LE-optimization-for-x32.patch      file://backport/0013-gas-ChangeLog.patch      file://backport/0014-Fix-opcode-for-64-bit-jecxz.patch      file://backport/0017-ld-elf-comm-data.exp-Add-XFAIL-for-arm-targets-refer.patch      file://backport/0018-bfd.patch      file://backport/0024-bfd.patch      file://backport/0026-ld-testsuite.patch      file://backport/0001-doc-binutils.texi-elfedit-Fix-use-of-itemx-in-table.patch      file://backport/0001-ld.texinfo-Replace-with-when-it-is-part-of-the-text.patch      file://backport/binutils-fix-ineffectual-zero-of-cache.patch      file://backport/binutils-replace-strncat-with-strcat.patch       file://backport/0001-config-tc-ppc.c-md_assemble-Do-not-generate-APUinfo-.patch        file://binutils-fix-over-array-bounds-issue.patch      '
p10
sS'pe'
p11
S'0'
p12
sS'bbfile'
p13
S'/OE/webos/wpb/webos-ports/openembedded-core/meta/recipes-devtools/binutils/binutils-cross_2.23.1.bb'
p14
sS'srcrev'
p15
(lp16
sS'pn'
p17
S'binutils-cross'
p18
s.(dp0
S'pr'
p1
S'r15.1'
p2
sS'packagelist'
p3
(lp4
sS'pv'
p5
S'5.9'
p6
sS'depends'
p7
S'autoconf-native automake-native gnu-config-native libtool-native'
p8
sS'src_uri'
p9
S'ftp://ftp.gnu.org/gnu/ncurses/ncurses-5.9.tar.gz file://tic-hang.patch             file://config.cache '
p10
sS'pe'
p11
S'0'
p12
sS'bbfile'
p13
S'virtual:native:/OE/webos/wpb/webos-ports/openembedded-core/meta/recipes-core/ncurses/ncurses_5.9.bb'
p14
sS'srcrev'
p15
(lp16
sS'pn'
p17
S'ncurses-native'
p18
s.(dp0
S'pr'
p1
S'r0'
p2
sS'packagelist'
p3
(lp4
sS'pv'
p5
S'5.1.2alpha'
p6
sS'depends'
p7
S'autoconf-native automake-native gettext-minimal-native gnu-config-native libtool-native'
p8
sS'src_uri'
p9
S'http://tukaani.org/xz/xz-5.1.2alpha.tar.gz'
p10
sS'pe'
p11
S'0'
p12
sS'bbfile'
p13
S'virtual:native:/OE/webos/wpb/webos-ports/openembedded-core/meta/recipes-extended/xz/xz_5.1.2alpha.bb'
p14
sS'srcrev'
p15
(lp16
sS'pn'
p17
S'xz-native'
p18
s.(dp0
S'pr'
p1
S'r0'
p2
sS'packagelist'
p3
(lp4
sS'pv'
p5
S'3.8.0'
p6
sS'depends'
p7
S'autoconf-native automake-native bison-native flex-native gnu-config-native gperf-native libtool-native ncurses-native pkgconfig-native'
p8
sS'src_uri'
p9
S'http://ymorin.is-a-geek.org/download/kconfig-frontends/kconfig-frontends-3.8.0.0.tar.xz'
p10
sS'pe'
p11
S'0'
p12
sS'bbfile'
p13
S'virtual:native:/OE/webos/wpb/webos-ports/openembedded-core/meta/recipes-devtools/kconfig-frontends/kconfig-frontends_3.8.0.bb'
p14
sS'srcrev'
p15
(lp16
sS'pn'
p17
S'kconfig-frontends-native'
p18
s.(dp0
S'pr'
p1
S'r20'
p2
sS'packagelist'
p3
(lp4
sS'pv'
p5
S'4.7.2'
p6
sS'depends'
p7
S'gmp-native libmpc-native mpfr-native virtual/arm-webos-linux-gnueabi-binutils zlib-native'
p8
sS'src_uri'
p9
S'ftp://ftp.gnu.org/gnu/gcc/gcc-4.7.2/gcc-4.7.2.tar.bz2 \t   file://gcc-4.3.1-ARCH_FLAGS_FOR_TARGET.patch \t   file://100-uclibc-conf.patch            file://gcc-uclibc-locale-ctype_touplow_t.patch            file://200-uclibc-locale.patch             file://203-uclibc-locale-no__x.patch;            file://204-uclibc-locale-wchar_fix.patch;            file://205-uclibc-locale-update.patch;            file://301-missing-execinfo_h.patch             file://302-c99-snprintf.patch             file://303-c99-complex-ugly-hack.patch             file://304-index_macro.patch             file://305-libmudflap-susv3-legacy.patch             file://306-libstdc++-namespace.patch             file://740-sh-pr24836.patch             file://800-arm-bigendian.patch             file://gcc-poison-system-directories.patch            file://gcc-poison-dir-extend.patch            file://gcc-4.3.3-SYSROOT_CFLAGS_FOR_TARGET.patch \t   file://64bithack.patch \t   file://optional_libstdc.patch \t   file://disable_relax_pic_calls_flag.patch \t   file://COLLECT_GCC_OPTIONS.patch            file://use-defaults.h-and-t-oe-in-B.patch \t   file://ppc_with_cpu.patch \t   file://ppce5500-e6500-support.patch \t   file://rs6000-tables.patch \t   file://define_insn_reservation.patch \t   file://pr32219.patch \t   file://fortran-cross-compile-hack.patch \t   file://libgcc-sjlj-check.patch \t   file://cpp-honor-sysroot.patch \t   file://mips64-default-n64.patch \t   file://GLIBC_DYNAMIC_LINKER.patch \t   file://arm-hard-float-loader.patch \t   file://gcc-argument-list-too-long.patch \t   file://fix-g++-sysroot.patch \t   file://disablesdt.patch \t   file://libtool.patch \t   file://gcc-armv4-pass-fix-v4bx-to-ld.patch \t   file://ppc_no_crtsavres.patch \t   file://0001-crtstuff.c-USE_PT_GNU_EH_FRAME-Define-for-systems-us.patch \t   file://0001-Makefile.in-vis_hide-gen-hide-list-Do-not-make-defin.patch \t   file://use-ml-conf-files-from-B.patch \t   file://wcast-qual-PR55383.patch \t   file://disable-texinfo-5.patch \t   file://avoid-oob-array-access.patch \t  '
p10
sS'pe'
p11
S'0'
p12
sS'bbfile'
p13
S'/OE/webos/wpb/webos-ports/openembedded-core/meta/recipes-devtools/gcc/gcc-cross-initial_4.7.bb'
p14
sS'srcrev'
p15
(lp16
sS'pn'
p17
S'gcc-cross-initial'
p18
s.(dp0
S'pr'
p1
S'r4'
p2
sS'packagelist'
p3
(lp4
sS'pv'
p5
S'6.2'
p6
sS'depends'
p7
S'autoconf-native automake-native gnu-config-native libtool-native ncurses-native'
p8
sS'src_uri'
p9
S'ftp://ftp.gnu.org/gnu/readline/readline-6.2.tar.gz;name=archive            file://configure-fix.patch            file://norpath.patch            file://acinclude.m4 ftp://ftp.gnu.org/gnu/readline/readline-6.2-patches/readline62-001;name=patch1;apply=yes;striplevel=0 ftp://ftp.gnu.org/gnu/readline/readline-6.2-patches/readline62-002;name=patch2;apply=yes;striplevel=0 ftp://ftp.gnu.org/gnu/readline/readline-6.2-patches/readline62-003;name=patch3;apply=yes;striplevel=0 ftp://ftp.gnu.org/gnu/readline/readline-6.2-patches/readline62-004;name=patch4;apply=yes;striplevel=0 '
p10
sS'pe'
p11
S'0'
p12
sS'bbfile'
p13
S'virtual:native:/OE/webos/wpb/webos-ports/openembedded-core/meta/recipes-core/readline/readline_6.2.bb'
p14
sS'srcrev'
p15
(lp16
sS'pn'
p17
S'readline-native'
p18
s.(dp0
S'pr'
p1
S'r15.0'
p2
sS'packagelist'
p3
(lp4
sS'pv'
p5
S'1.0.1e'
p6
sS'depends'
p7
S'ocf-linux-native perl-native-runtime-native pkgconfig-native'
p8
sS'src_uri'
p9
S'http://www.openssl.org/source/openssl-1.0.1e.tar.gz            file://configure-targets.patch             file://shared-libs.patch             file://oe-ldflags.patch             file://engines-install-in-libdir-ssl.patch             file://openssl-fix-link.patch             file://debian/version-script.patch             file://debian/pic.patch             file://debian/c_rehash-compat.patch             file://debian/ca.patch             file://debian/make-targets.patch             file://debian/no-rpath.patch             file://debian/man-dir.patch             file://debian/man-section.patch             file://debian/no-symbolic.patch             file://debian/debian-targets.patch             file://openssl_fix_for_x32.patch             file://find.pl            '
p10
sS'pe'
p11
S'0'
p12
sS'bbfile'
p13
S'virtual:native:/OE/webos/wpb/webos-ports/openembedded-core/meta/recipes-connectivity/openssl/openssl_1.0.1e.bb'
p14
sS'srcrev'
p15
(lp16
sS'pn'
p17
S'openssl-native'
p18
s.(dp0
S'pr'
p1
S'r5'
p2
sS'packagelist'
p3
(lp4
sS'pv'
p5
S'1.0.6'
p6
sS'depends'
p7
S'autoconf-native automake-native gnu-config-native libtool-native'
p8
sS'src_uri'
p9
S'http://www.bzip.org/1.0.6/bzip2-1.0.6.tar.gz            file://configure.ac \t   file://Makefile.am'
p10
sS'pe'
p11
S'0'
p12
sS'bbfile'
p13
S'virtual:native:/OE/webos/wpb/webos-ports/openembedded-core/meta/recipes-extended/bzip2/bzip2_1.0.6.bb'
p14
sS'srcrev'
p15
(lp16
sS'pn'
p17
S'bzip2-native'
p18
s.(dp0
S'pr'
p1
S'r0.1'
p2
sS'packagelist'
p3
(lp4
sS'pv'
p5
S'2.7.3'
p6
sS'depends'
p7
S'autoconf-native automake-native bzip2-replacement-native gnu-config-native libtool-native openssl-native readline-native sqlite3-native zlib-native'
p8
sS'src_uri'
p9
S'http://www.python.org/ftp/python/2.7.3/Python-2.7.3.tar.bz2 file://04-default-is-optimized.patch            file://05-enable-ctypes-cross-build.patch            file://06-ctypes-libffi-fix-configure.patch            file://10-distutils-fix-swig-parameter.patch            file://11-distutils-never-modify-shebang-line.patch            file://12-distutils-prefix-is-inside-staging-area.patch            file://debug.patch            file://unixccompiler.patch            file://nohostlibs.patch            file://multilib.patch            file://add-md5module-support.patch            file://builddir.patch            '
p10
sS'pe'
p11
S'0'
p12
sS'bbfile'
p13
S'/OE/webos/wpb/webos-ports/openembedded-core/meta/recipes-devtools/python/python-native_2.7.3.bb'
p14
sS'srcrev'
p15
(lp16
sS'pn'
p17
S'python-native'
p18
s.(dp0
S'pr'
p1
S'r4'
p2
sS'packagelist'
p3
(lp4
sS'pv'
p5
S'2.4.46'
p6
sS'depends'
p7
S'autoconf-native automake-native gettext-minimal-native gnu-config-native libtool-native ncurses-native'
p8
sS'src_uri'
p9
S'http://download.savannah.gnu.org/releases/attr/attr-2.4.46.src.tar.gz            file://generic-syscalls.patch             file://relative-libdir.patch;striplevel=0            '
p10
sS'pe'
p11
S'0'
p12
sS'bbfile'
p13
S'virtual:native:/OE/webos/wpb/webos-ports/openembedded-core/meta/recipes-support/attr/attr_2.4.46.bb'
p14
sS'srcrev'
p15
(lp16
sS'pn'
p17
S'attr-native'
p18
s.(dp0
S'pr'
p1
S'r11'
p2
sS'packagelist'
p3
(lp4
sS'pv'
p5
S'0.148'
p6
sS'depends'
p7
S'autoconf-native automake-native bzip2-native gettext-minimal-native gnu-config-native libtool-native libtool-native virtual/libintl-native zlib-native'
p8
sS'src_uri'
p9
S'https://fedorahosted.org/releases/e/l/elfutils/elfutils-0.148.tar.bz2         file://redhat-portability.diff         file://redhat-robustify.diff         file://hppa_backend.diff         file://arm_backend.diff         file://mips_backend.diff         file://m68k_backend.diff         file://do-autoreconf.diff         file://testsuite-ignore-elflint.diff         file://elf_additions.diff \tfile://elfutils-fsize.patch \tfile://remove-unused.patch \tfile://mempcpy.patch \tfile://fix_for_gcc-4.7.patch \tfile://dso-link-change.patch \tfile://nm-Fix-size-passed-to-snprintf-for-invalid-sh_name-case.patch \tfile://elfutils-ar-c-fix-num-passed-to-memset.patch          file://i386_dis.h         file://x86_64_dis.h '
p10
sS'pe'
p11
S'0'
p12
sS'bbfile'
p13
S'virtual:native:/OE/webos/wpb/webos-ports/openembedded-core/meta/recipes-devtools/elfutils/elfutils_0.148.bb'
p14
sS'srcrev'
p15
(lp16
sS'pn'
p17
S'elfutils-native'
p18
s.(dp0
S'pr'
p1
S'r0'
p2
sS'packagelist'
p3
(lp4
sS'pv'
p5
S'5.13'
p6
sS'depends'
p7
S'autoconf-native automake-native gnu-config-native libtool-native zlib-native'
p8
sS'src_uri'
p9
S'ftp://ftp.astron.com/pub/file/file-5.13.tar.gz            file://fix_version_check.patch            file://dump            file://filesystems'
p10
sS'pe'
p11
S'0'
p12
sS'bbfile'
p13
S'virtual:native:/OE/webos/wpb/webos-ports/openembedded-core/meta/recipes-devtools/file/file_5.13.bb'
p14
sS'srcrev'
p15
(lp16
sS'pn'
p17
S'file-native'
p18
s.(dp0
S'pr'
p1
S'r6.1'
p2
sS'packagelist'
p3
(lp4
sS'pv'
p5
S'2.4.2'
p6
sS'depends'
p7
S'autoconf-native automake-native gnu-config-native libtool-native virtual/arm-webos-linux-gnueabi-compilerlibs virtual/arm-webos-linux-gnueabi-gcc virtual/libc'
p8
sS'src_uri'
p9
S'ftp://ftp.gnu.org/gnu/libtool/libtool-2.4.2.tar.gz            file://trailingslash.patch            file://rename-with-sysroot.patch            file://use-sysroot-in-libpath.patch            file://fix-final-rpath.patch            file://avoid_absolute_paths_for_general_utils.patch            file://fix-rpath.patch \t   file://respect-fstack-protector.patch            file://norm-rpath.patch            file://dont-depend-on-help2man.patch            file://prefix.patch file://fixinstall.patch'
p10
sS'pe'
p11
S'0'
p12
sS'bbfile'
p13
S'/OE/webos/wpb/webos-ports/openembedded-core/meta/recipes-devtools/libtool/libtool-cross_2.4.2.bb'
p14
sS'srcrev'
p15
(lp16
sS'pn'
p17
S'libtool-cross'
p18
s.(dp0
S'pr'
p1
S'r0'
p2
sS'packagelist'
p3
(lp4
sS'pv'
p5
S'50.1.2'
p6
sS'depends'
p7
S'autoconf-native automake-native gnu-config-native libtool-native pkgconfig-native'
p8
sS'src_uri'
p9
S'http://download.icu-project.org/files/icu4c/50.1.2/icu4c-50_1_2-src.tgz'
p10
sS'pe'
p11
S'0'
p12
sS'bbfile'
p13
S'virtual:native:/OE/webos/wpb/webos-ports/openembedded-core/meta/recipes-support/icu/icu_50.1.2.bb'
p14
sS'srcrev'
p15
(lp16
sS'pn'
p17
S'icu-native'
p18
s.(dp0
S'pr'
p1
S'r3'
p2
sS'packagelist'
p3
(lp4
sS'pv'
p5
S'2.23.1'
p6
sS'depends'
p7
S'autoconf-native automake-native bison-native bison-native flex-native flex-native gettext-minimal-native gnu-config-native libtool-native zlib-native zlib-native'
p8
sS'src_uri'
p9
S'     ftp://ftp.gnu.org/gnu/binutils/binutils-2.23.1.tar.bz2      file://binutils-uclibc-100-uclibc-conf.patch      file://binutils-uclibc-300-001_ld_makefile_patch.patch      file://binutils-uclibc-300-006_better_file_error.patch      file://binutils-uclibc-300-012_check_ldrunpath_length.patch      file://binutils-uclibc-gas-needs-libm.patch      file://binutils-x86_64_i386_biarch.patch      file://libtool-2.4-update.patch      file://libiberty_path_fix.patch      file://binutils-poison.patch      file://libtool-rpath-fix.patch      file://binutils-armv5e.patch      file://mips64-default-ld-emulation.patch           file://backport/0001-bfd.patch      file://backport/0003-Assemble-all-sources-files-in-each-test.patch      file://backport/0005-bfd.patch      file://backport/0010-bfd-ChangeLog.patch      file://backport/0012-Fix-TLS-LD-to-LE-optimization-for-x32.patch      file://backport/0013-gas-ChangeLog.patch      file://backport/0014-Fix-opcode-for-64-bit-jecxz.patch      file://backport/0017-ld-elf-comm-data.exp-Add-XFAIL-for-arm-targets-refer.patch      file://backport/0018-bfd.patch      file://backport/0024-bfd.patch      file://backport/0026-ld-testsuite.patch      file://backport/0001-doc-binutils.texi-elfedit-Fix-use-of-itemx-in-table.patch      file://backport/0001-ld.texinfo-Replace-with-when-it-is-part-of-the-text.patch      file://backport/binutils-fix-ineffectual-zero-of-cache.patch      file://backport/binutils-replace-strncat-with-strcat.patch       file://backport/0001-config-tc-ppc.c-md_assemble-Do-not-generate-APUinfo-.patch        file://binutils-fix-over-array-bounds-issue.patch      '
p10
sS'pe'
p11
S'0'
p12
sS'bbfile'
p13
S'virtual:native:/OE/webos/wpb/webos-ports/openembedded-core/meta/recipes-devtools/binutils/binutils_2.23.1.bb'
p14
sS'srcrev'
p15
(lp16
sS'pn'
p17
S'binutils-native'
p18
s.(dp0
S'pr'
p1
S'r0'
p2
sS'packagelist'
p3
(lp4
sS'pv'
p5
S'5.3.21'
p6
sS'depends'
p7
S'autoconf-native automake-native gnu-config-native libtool-native'
p8
sS'src_uri'
p9
S'http://download.oracle.com/berkeley-db/db-5.3.21.tar.gz file://arm-thumb-mutex_db5.patch;patchdir=..'
p10
sS'pe'
p11
S'0'
p12
sS'bbfile'
p13
S'virtual:native:/OE/webos/wpb/webos-ports/openembedded-core/meta/recipes-support/db/db_5.3.21.bb'
p14
sS'srcrev'
p15
(lp16
sS'pn'
p17
S'db-native'
p18
s.(dp0
S'pr'
p1
S'r3'
p2
sS'packagelist'
p3
(lp4
sS'pv'
p5
S'4.2.1'
p6
sS'depends'
p7
S'autoconf-native automake-native gnu-config-native icu-native libtool-native'
p8
sS'src_uri'
p9
S'http://downloads.sourceforge.net/beecrypt/beecrypt-4.2.1.tar.gz \t file://disable-icu-check.patch \t file://fix-security.patch          file://fix-for-gcc-4.7.patch'
p10
sS'pe'
p11
S'0'
p12
sS'bbfile'
p13
S'virtual:native:/OE/webos/wpb/webos-ports/openembedded-core/meta/recipes-support/beecrypt/beecrypt_4.2.1.bb'
p14
sS'srcrev'
p15
(lp16
sS'pn'
p17
S'beecrypt-native'
p18
s.(dp0
S'pr'
p1
S'r2'
p2
sS'packagelist'
p3
(lp4
sS'pv'
p5
S'1.6.2'
p6
sS'depends'
p7
S'autoconf-native automake-native gnu-config-native libtool-native'
p8
sS'src_uri'
p9
S'ftp://ftp.ossp.org/pkg/lib/uuid/uuid-1.6.2.tar.gz \t   file://0001-Change-library-name.patch \t   file://0002-uuid-preserve-m-option-status-in-v-option-handling.patch \t   file://0003-Fix-whatis-entries.patch \t   file://0004-fix-data-uuid-from-string.patch \t   file://uuid-libtool.patch \t   file://uuid-nostrip.patch            file://install-pc.patch \t  '
p10
sS'pe'
p11
S'0'
p12
sS'bbfile'
p13
S'virtual:native:/OE/webos/wpb/webos-ports/openembedded-core/meta/recipes-devtools/ossp-uuid/ossp-uuid_1.6.2.bb'
p14
sS'srcrev'
p15
(lp16
sS'pn'
p17
S'ossp-uuid-native'
p18
s.(dp0
S'pr'
p1
S'r3'
p2
sS'packagelist'
p3
(lp4
sS'pv'
p5
S'1.16'
p6
sS'depends'
p7
S'autoconf-native automake-native gettext-minimal-native gnu-config-native libtool-native'
p8
sS'src_uri'
p9
S'http://rpm5.org/files/popt/popt-1.16.tar.gz            file://pkgconfig_fix.patch            file://popt_fix_for_automake-1.12.patch            file://disable_tests.patch           '
p10
sS'pe'
p11
S'0'
p12
sS'bbfile'
p13
S'virtual:native:/OE/webos/wpb/webos-ports/openembedded-core/meta/recipes-support/popt/popt_1.16.bb'
p14
sS'srcrev'
p15
(lp16
sS'pn'
p17
S'popt-native'
p18
s.(dp0
S'pr'
p1
S'r3'
p2
sS'packagelist'
p3
(lp4
sS'pv'
p5
S'2.2.51'
p6
sS'depends'
p7
S'attr-native autoconf-native automake-native gettext-minimal-native gnu-config-native libtool-native'
p8
sS'src_uri'
p9
S'http://download.savannah.gnu.org/releases/acl/acl-2.2.51.src.tar.gz file://relative-libdir.patch;striplevel=0            '
p10
sS'pe'
p11
S'0'
p12
sS'bbfile'
p13
S'virtual:native:/OE/webos/wpb/webos-ports/openembedded-core/meta/recipes-support/attr/acl_2.2.51.bb'
p14
sS'srcrev'
p15
(lp16
sS'pn'
p17
S'acl-native'
p18
s.(dp0
S'pr'
p1
S'r1'
p2
sS'packagelist'
p3
(lp4
sS'pv'
p5
S'8.32'
p6
sS'depends'
p7
S'autoconf-native automake-native bzip2-native gnu-config-native libtool-native readline-native zlib-native'
p8
sS'src_uri'
p9
S'http://downloads.sourceforge.net/project/pcre/pcre/8.32/pcre-8.32.tar.bz2            file://pcre-cross.patch            file://fix-pcre-name-collision.patch'
p10
sS'pe'
p11
S'0'
p12
sS'bbfile'
p13
S'virtual:native:/OE/webos/wpb/webos-ports/openembedded-core/meta/recipes-support/libpcre/libpcre_8.32.bb'
p14
sS'srcrev'
p15
(lp16
sS'pn'
p17
S'libpcre-native'
p18
s.(dp0
S'pr'
p1
S'r0'
p2
sS'packagelist'
p3
(lp4
sS'pv'
p5
S'1.0+gitAUTOINC+4e313edb125db215d4c456ce62c74ee16841a365'
p6
sS'depends'
p7
S'autoconf-native automake-native binutils-native elfutils-native gnu-config-native libtool-native'
p8
sS'src_uri'
p9
S'git://git.yoctoproject.org/prelink-cross.git;protocol=git            file://prelink.conf            file://prelink.cron.daily            file://prelink.default \t   file://macros.prelink'
p10
sS'pe'
p11
S'0'
p12
sS'bbfile'
p13
S'virtual:native:/OE/webos/wpb/webos-ports/openembedded-core/meta/recipes-devtools/prelink/prelink_git.bb'
p14
sS'srcrev'
p15
(lp16
S'4e313edb125db215d4c456ce62c74ee16841a365'
p17
asS'pn'
p18
S'prelink-native'
p19
s.(dp0
S'pr'
p1
S'r63'
p2
sS'packagelist'
p3
(lp4
sS'pv'
p5
S'5.4.9'
p6
sS'depends'
p7
S'acl-native attr-native autoconf-native automake-native beecrypt-native bison-native bzip2-native db-native elfutils-native file-native gettext-minimal-native gnu-config-native libpcre-native libtool-native openssl-native ossp-uuid-native popt-native python-native zlib-native'
p8
sS'src_uri'
p9
S'http://www.rpm5.org/files/rpm/rpm-5.4/rpm-5.4.9-0.20120508.src.rpm;extract=rpm-5.4.9.tar.gz \t   file://rpm-log-auto-rm.patch \t   file://rpm-db-reduce.patch \t   file://perfile_rpmdeps.sh \t   file://rpm-autogen.patch \t   file://rpm-libsql-fix.patch \t   file://header-include-fix.patch \t   file://rpm-platform.patch \t   file://rpm-showrc.patch \t   file://rpm-solvedb.patch \t   file://rpm-tools-mtree-LDFLAGS.patch \t   file://rpm-fileclass.patch \t   file://rpm-canonarch.patch \t   file://rpm-no-loopmsg.patch \t   file://rpm-scriptletexechelper.patch \t   file://pythondeps.sh \t   file://rpmdeps-oecore.patch \t   file://rpm-resolvedep.patch \t   file://rpm-respect-arch.patch \t   file://rpm-no-perl-urpm.patch \t   file://rpm-macros.patch \t   file://rpm-lua.patch \t   file://rpm-ossp-uuid.patch \t   file://rpm-packageorigin.patch \t   file://rpm-pkgconfigdeps.patch \t   file://uclibc-support.patch \t   file://rpmatch.patch \t   file://fstack-protector-configure-check.patch \t   file://dbconvert.patch \t   file://rpm-uuid-include.patch \t   file://makefile-am-exec-hook.patch \t   file://rpm-stub-out-git_strerror.patch \t   file://rpm-db_buffer_small.patch \t   file://rpm-py-init.patch \t   file://python-rpm-rpmsense.patch \t   file://rpm-reloc-macros.patch \t   file://rpm-platform2.patch \t   file://rpm-remove-sykcparse-decl.patch \t   file://debugedit-segv.patch      file://rpm-platform-file-fix.patch \t  '
p10
sS'pe'
p11
S'0'
p12
sS'bbfile'
p13
S'virtual:native:/OE/webos/wpb/webos-ports/openembedded-core/meta/recipes-devtools/rpm/rpm_5.4.9.bb'
p14
sS'srcrev'
p15
(lp16
sS'pn'
p17
S'rpm-native'
p18
s.(dp0
S'pr'
p1
S'r0'
p2
sS'packagelist'
p3
(lp4
sS'pv'
p5
S'0.18.2'
p6
sS'depends'
p7
S'autoconf-native automake-native gettext-minimal-native gnu-config-native libtool-native'
p8
sS'src_uri'
p9
S'ftp://ftp.gnu.org/gnu/gettext/gettext-0.18.2.tar.gz \t   file://parallel.patch           '
p10
sS'pe'
p11
S'0'
p12
sS'bbfile'
p13
S'virtual:native:/OE/webos/wpb/webos-ports/openembedded-core/meta/recipes-core/gettext/gettext_0.18.2.bb'
p14
sS'srcrev'
p15
(lp16
sS'pn'
p17
S'gettext-native'
p18
s.(dp0
S'pr'
p1
S'r0'
p2
sS'packagelist'
p3
(lp4
sS'pv'
p5
S'0.0+gitAUTOINC+3dfd0a09de696ec8c544762747f8a0f77153622e'
p6
sS'depends'
p7
S'autoconf-native automake-native gnu-config-native libtool-native'
p8
sS'src_uri'
p9
S'git://git.gnome.org/gtk-doc-stub;protocol=git'
p10
sS'pe'
p11
S'0'
p12
sS'bbfile'
p13
S'virtual:native:/OE/webos/wpb/webos-ports/openembedded-core/meta/recipes-gnome/gtk-doc-stub/gtk-doc-stub_git.bb'
p14
sS'srcrev'
p15
(lp16
S'3dfd0a09de696ec8c544762747f8a0f77153622e'
p17
asS'pn'
p18
S'gtk-doc-stub-native'
p19
s.(dp0
S'pr'
p1
S'ml5'
p2
sS'packagelist'
p3
(lp4
sS'pv'
p5
S'0.6c11'
p6
sS'depends'
p7
S'python-native'
p8
sS'src_uri'
p9
S'  http://cheeseshop.python.org/packages/source/s/setuptools/setuptools-0.6c11.tar.gz'
p10
sS'pe'
p11
S'0'
p12
sS'bbfile'
p13
S'virtual:native:/OE/webos/wpb/webos-ports/openembedded-core/meta/recipes-devtools/python/python-setuptools_0.6c11.bb'
p14
sS'srcrev'
p15
(lp16
sS'pn'
p17
S'python-setuptools-native'
p18
s.(dp0
S'pr'
p1
S'r3'
p2
sS'packagelist'
p3
(lp4
sS'pv'
p5
S'1.2.1'
p6
sS'depends'
p7
S'python-native python-setuptools-native'
p8
sS'src_uri'
p9
S'http://argparse.googlecode.com/files/argparse-1.2.1.tar.gz'
p10
sS'pe'
p11
S'0'
p12
sS'bbfile'
p13
S'virtual:native:/OE/webos/wpb/webos-ports/openembedded-core/meta/recipes-devtools/python/python-argparse_1.2.1.bb'
p14
sS'srcrev'
p15
(lp16
sS'pn'
p17
S'python-argparse-native'
p18
s.(dp0
S'pr'
p1
S'r0'
p2
sS'packagelist'
p3
(lp4
sS'pv'
p5
S'2.1.0'
p6
sS'depends'
p7
S'autoconf-native automake-native gnu-config-native gzip-native libtool-native'
p8
sS'src_uri'
p9
S'http://downloads.sourceforge.net/expat/expat-2.1.0.tar.gz            file://autotools.patch'
p10
sS'pe'
p11
S'0'
p12
sS'bbfile'
p13
S'virtual:native:/OE/webos/wpb/webos-ports/openembedded-core/meta/recipes-core/expat/expat_2.1.0.bb'
p14
sS'srcrev'
p15
(lp16
sS'pn'
p17
S'expat-native'
p18
s.(dp0
S'pr'
p1
S'r1'
p2
sS'packagelist'
p3
(lp4
sS'pv'
p5
S'2.06'
p6
sS'depends'
p7
S'autoconf-native automake-native gnu-config-native libtool-native'
p8
sS'src_uri'
p9
S'http://www.oberhumer.com/opensource/lzo/download/lzo-2.06.tar.gz            file://acinclude.m4            '
p10
sS'pe'
p11
S'0'
p12
sS'bbfile'
p13
S'virtual:native:/OE/webos/wpb/webos-ports/openembedded-core/meta/recipes-support/lzo/lzo_2.06.bb'
p14
sS'srcrev'
p15
(lp16
sS'pn'
p17
S'lzo-native'
p18
s.(dp0
S'pr'
p1
S'r1'
p2
sS'packagelist'
p3
(lp4
sS'pv'
p5
S'3.0.11'
p6
sS'depends'
p7
S'autoconf-native automake-native gnu-config-native libtool-native'
p8
sS'src_uri'
p9
S'ftp://sourceware.org/pub/libffi/libffi-3.0.11.tar.gz            file://0001-libffi-update-for-3.0.11.patch            file://add-aarch64-support.patch            file://aarch64-adding-build-support.patch '
p10
sS'pe'
p11
S'0'
p12
sS'bbfile'
p13
S'virtual:native:/OE/webos/wpb/webos-ports/openembedded-core/meta/recipes-gnome/libffi/libffi_3.0.11.bb'
p14
sS'srcrev'
p15
(lp16
sS'pn'
p17
S'libffi-native'
p18
s.(dp0
S'pr'
p1
S'r2'
p2
sS'packagelist'
p3
(lp4
sS'pv'
p5
S'2.34.3'
p6
sS'depends'
p7
S'autoconf-native automake-native gettext-minimal-native gettext-native gnu-config-native gtk-doc-stub-native libffi-native libtool-native pkgconfig-native pkgconfig-native python-argparse-native'
p8
sS'src_uri'
p9
S'http://ftp.gnome.org/pub/GNOME/sources/glib/2.34/glib-2.34.3.tar.xz            file://configure-libtool.patch            file://glib-2.0_fix_for_x32.patch            file://obsolete_automake_macros.patch            file://fix-conflicting-rand.patch            file://Makefile-ptest.patch            file://run-ptest            file://glib-gettextize-dir.patch'
p10
sS'pe'
p11
S'1'
p12
sS'bbfile'
p13
S'virtual:native:/OE/webos/wpb/webos-ports/openembedded-core/meta/recipes-core/glib-2.0/glib-2.0_2.34.3.bb'
p14
sS'srcrev'
p15
(lp16
sS'pn'
p17
S'glib-2.0-native'
p18
s.(dp0
S'pr'
p1
S'r1.1'
p2
sS'packagelist'
p3
(lp4
sS'pv'
p5
S'2.9.0'
p6
sS'depends'
p7
S'autoconf-native automake-native gnu-config-native libtool-native pkgconfig-native python-native'
p8
sS'src_uri'
p9
S'ftp://xmlsoft.org/libxml2/libxml2-2.9.0.tar.gz            file://libxml-64bit.patch            file://ansidecl.patch file://libxml2-CVE-2012-2871.patch \t   '
p10
sS'pe'
p11
S'0'
p12
sS'bbfile'
p13
S'virtual:native:/OE/webos/wpb/webos-ports/openembedded-core/meta/recipes-core/libxml/libxml2_2.9.0.bb'
p14
sS'srcrev'
p15
(lp16
sS'pn'
p17
S'libxml2-native'
p18
s.(dp0
S'pr'
p1
S'r0'
p2
sS'packagelist'
p3
(lp4
sS'pv'
p5
S'1.11'
p6
sS'depends'
p7
S'autoconf-native automake-native gettext-minimal-native gnu-config-native libtool-native pkgconfig-native'
p8
sS'src_uri'
p9
S'ftp://ftp.gnupg.org/gcrypt/libgpg-error/libgpg-error-1.11.tar.bz2            file://pkgconfig.patch'
p10
sS'pe'
p11
S'0'
p12
sS'bbfile'
p13
S'virtual:native:/OE/webos/wpb/webos-ports/openembedded-core/meta/recipes-support/libgpg-error/libgpg-error_1.11.bb'
p14
sS'srcrev'
p15
(lp16
sS'pn'
p17
S'libgpg-error-native'
p18
s.(dp0
S'pr'
p1
S'r3'
p2
sS'packagelist'
p3
(lp4
sS'pv'
p5
S'2.22.2'
p6
sS'depends'
p7
S'autoconf-native automake-native gettext-minimal-native gnu-config-native libtool-native lzo-native ncurses-native pkgconfig-native zlib-native'
p8
sS'src_uri'
p9
S'http://kernel.org/pub/linux/utils/util-linux/v2.22/util-linux-2.22.2.tar.bz2            file://MCONFIG            file://defines.h            file://make_include            file://swapargs.h             file://util-linux-ng-replace-siginterrupt.patch             file://util-linux-ng-2.16-mount_lock_path.patch             file://uclibc-__progname-conflict.patch             file://configure-sbindir.patch             file://fix-configure.patch             file://mbsalign-license.patch '
p10
sS'pe'
p11
S'0'
p12
sS'bbfile'
p13
S'virtual:native:/OE/webos/wpb/webos-ports/openembedded-core/meta/recipes-core/util-linux/util-linux_2.22.2.bb'
p14
sS'srcrev'
p15
(lp16
sS'pn'
p17
S'util-linux-native'
p18
s.(dp0
S'pr'
p1
S'r2'
p2
sS'packagelist'
p3
(lp4
sS'pv'
p5
S'1.5.0'
p6
sS'depends'
p7
S'autoconf-native automake-native gnu-config-native libcap-native libgpg-error-native libtool-native pkgconfig-native'
p8
sS'src_uri'
p9
S'ftp://ftp.gnupg.org/gcrypt/libgcrypt/libgcrypt-1.5.0.tar.gz            file://add-pkgconfig-support.patch file://obsolete_automake_macros.patch'
p10
sS'pe'
p11
S'0'
p12
sS'bbfile'
p13
S'virtual:native:/OE/webos/wpb/webos-ports/openembedded-core/meta/recipes-support/libgcrypt/libgcrypt_1.5.0.bb'
p14
sS'srcrev'
p15
(lp16
sS'pn'
p17
S'libgcrypt-native'
p18
s.(dp0
S'pr'
p1
S'r1'
p2
sS'packagelist'
p3
(lp4
sS'pv'
p5
S'2.14'
p6
sS'depends'
p7
S'autoconf-native automake-native gnu-config-native libtool-native'
p8
sS'src_uri'
p9
S'ftp://ftp.gnu.org/gnu/libtasn1/libtasn1-2.14.tar.gz            file://libtasn1_fix_for_automake_1.12.patch            file://dont-depend-on-help2man.patch            '
p10
sS'pe'
p11
S'0'
p12
sS'bbfile'
p13
S'virtual:native:/OE/webos/wpb/webos-ports/openembedded-core/meta/recipes-support/gnutls/libtasn1_2.14.bb'
p14
sS'srcrev'
p15
(lp16
sS'pn'
p17
S'libtasn1-native'
p18
s.(dp0
S'pr'
p1
S'r3'
p2
sS'packagelist'
p3
(lp4
sS'pv'
p5
S'1.10'
p6
sS'depends'
p7
S'autoconf-native automake-native gettext-minimal-native gnu-config-native libtool-native'
p8
sS'src_uri'
p9
S'ftp://ftp.gnu.org/gnu/gdbm/gdbm-1.10.tar.gz'
p10
sS'pe'
p11
S'0'
p12
sS'bbfile'
p13
S'virtual:native:/OE/webos/wpb/webos-ports/openembedded-core/meta/recipes-support/gdbm/gdbm_1.10.bb'
p14
sS'srcrev'
p15
(lp16
sS'pn'
p17
S'gdbm-native'
p18
s.(dp0
S'pr'
p1
S'r2'
p2
sS'packagelist'
p3
(lp4
sS'pv'
p5
S'1.4.6'
p6
sS'depends'
p7
S'autoconf-native automake-native gnu-config-native libtool-native util-linux-native'
p8
sS'src_uri'
p9
S'http://www.apache.org/dist/apr/apr-1.4.6.tar.bz2            file://configure_fixes.patch            file://cleanup.patch            file://configfix.patch'
p10
sS'pe'
p11
S'0'
p12
sS'bbfile'
p13
S'virtual:native:/OE/webos/wpb/webos-ports/openembedded-core/meta/recipes-support/apr/apr_1.4.6.bb'
p14
sS'srcrev'
p15
(lp16
sS'pn'
p17
S'apr-native'
p18
s.(dp0
S'pr'
p1
S'r8.4'
p2
sS'packagelist'
p3
(lp4
sS'pv'
p5
S'2.12.21'
p6
sS'depends'
p7
S'autoconf-native automake-native gettext-minimal-native gnu-config-native libcap-native libgcrypt-native libtasn1-native libtool-native lzo-native pkgconfig-native readline-native zlib-native'
p8
sS'src_uri'
p9
S'ftp://ftp.gnu.org/gnu/gnutls/gnutls-2.12.21.tar.bz2 file://gnutls-openssl.patch             file://correct_rpl_gettimeofday_signature.patch             file://configure-fix.patch             file://gnutls_fix_for_automake_1.12.1.patch             file://avoid_AM_PROG_MKDIR_P_warning_error_with_automake_1.12.patch             file://obsolete_automake_macros.patch             file://fix-gettext-version.patch             file://remove-gets.patch            '
p10
sS'pe'
p11
S'0'
p12
sS'bbfile'
p13
S'virtual:native:/OE/webos/wpb/webos-ports/openembedded-core/meta/recipes-support/gnutls/gnutls_2.12.21.bb'
p14
sS'srcrev'
p15
(lp16
sS'pn'
p17
S'gnutls-native'
p18
s.(dp0
S'pr'
p1
S'r0'
p2
sS'packagelist'
p3
(lp4
sS'pv'
p5
S'1.5.1'
p6
sS'depends'
p7
S'apr-native autoconf-native automake-native expat-native gdbm-native gnu-config-native libtool-native'
p8
sS'src_uri'
p9
S'http://www.apache.org/dist/apr/apr-util-1.5.1.tar.gz            file://configfix.patch            file://configure_fixes.patch'
p10
sS'pe'
p11
S'0'
p12
sS'bbfile'
p13
S'virtual:native:/OE/webos/wpb/webos-ports/openembedded-core/meta/recipes-support/apr/apr-util_1.5.1.bb'
p14
sS'srcrev'
p15
(lp16
sS'pn'
p17
S'apr-util-native'
p18
s.(dp0
S'pr'
p1
S'r3'
p2
sS'packagelist'
p3
(lp4
sS'pv'
p5
S'0.29.6'
p6
sS'depends'
p7
S'autoconf-native automake-native expat-native gnu-config-native gnutls-native libtool-native libxml2-native pkgconfig-native zlib-native'
p8
sS'src_uri'
p9
S'http://www.webdav.org/neon/neon-0.29.6.tar.gz            file://pkgconfig.patch'
p10
sS'pe'
p11
S'0'
p12
sS'bbfile'
p13
S'virtual:native:/OE/webos/wpb/webos-ports/openembedded-core/meta/recipes-support/neon/neon_0.29.6.bb'
p14
sS'srcrev'
p15
(lp16
sS'pn'
p17
S'neon-native'
p18
s.(dp0
S'pr'
p1
S'r0'
p2
sS'packagelist'
p3
(lp4
sS'pv'
p5
S'1.7.8'
p6
sS'depends'
p7
S'apr-util-native autoconf-native automake-native gettext-minimal-native gnu-config-native libtool-native neon-native sqlite3-native'
p8
sS'src_uri'
p9
S'http://www.apache.org/dist/subversion/subversion-1.7.8.tar.bz2            file://libtool2.patch            file://fix-install-depends.patch '
p10
sS'pe'
p11
S'0'
p12
sS'bbfile'
p13
S'virtual:native:/OE/webos/wpb/webos-ports/openembedded-core/meta/recipes-devtools/subversion/subversion_1.7.8.bb'
p14
sS'srcrev'
p15
(lp16
sS'pn'
p17
S'subversion-native'
p18
s.(dp0
S'pr'
p1
S'r15.1'
p2
sS'packagelist'
p3
(lp4
S'ncurses-dbg'
p5
aS'ncurses-staticdev'
p6
aS'ncurses-dev'
p7
aS'ncurses-doc'
p8
aS'ncurses-locale'
p9
aS'ncurses'
p10
aS'ncurses-tools'
p11
aS'ncurses-terminfo'
p12
aS'ncurses-terminfo-base'
p13
asS'pv'
p14
S'5.9'
p15
sS'depends'
p16
S'autoconf-native automake-native gnu-config-native libtool-cross libtool-native ncurses-native virtual/arm-webos-linux-gnueabi-compilerlibs virtual/arm-webos-linux-gnueabi-gcc virtual/libc virtual/update-alternatives'
p17
sS'src_uri'
p18
S'ftp://ftp.gnu.org/gnu/ncurses/ncurses-5.9.tar.gz file://tic-hang.patch             file://config.cache '
p19
sS'pe'
p20
S'0'
p21
sS'bbfile'
p22
S'/OE/webos/wpb/webos-ports/openembedded-core/meta/recipes-core/ncurses/ncurses_5.9.bb'
p23
sS'srcrev'
p24
(lp25
sS'pn'
p26
S'ncurses'
p27
s.(dp0
S'pr'
p1
S'r0'
p2
sS'packagelist'
p3
(lp4
S'expat-dbg'
p5
aS'expat-staticdev'
p6
aS'expat-dev'
p7
aS'expat-doc'
p8
aS'expat-locale'
p9
aS'expat-bin'
p10
aS'expat'
p11
asS'pv'
p12
S'2.1.0'
p13
sS'depends'
p14
S'autoconf-native automake-native gnu-config-native gzip-native libtool-cross libtool-native virtual/arm-webos-linux-gnueabi-compilerlibs virtual/arm-webos-linux-gnueabi-gcc virtual/libc'
p15
sS'src_uri'
p16
S'http://downloads.sourceforge.net/expat/expat-2.1.0.tar.gz            file://autotools.patch'
p17
sS'pe'
p18
S'0'
p19
sS'bbfile'
p20
S'/OE/webos/wpb/webos-ports/openembedded-core/meta/recipes-core/expat/expat_2.1.0.bb'
p21
sS'srcrev'
p22
(lp23
sS'pn'
p24
S'expat'
p25
s.(dp0
S'pr'
p1
S'r0'
p2
sS'packagelist'
p3
(lp4
S'gettext-runtime'
p5
aS'gettext-runtime-dev'
p6
aS'gettext-runtime-doc'
p7
aS'libgettextlib'
p8
aS'libgettextsrc'
p9
aS'gettext-dbg'
p10
aS'gettext-staticdev'
p11
aS'gettext-dev'
p12
aS'gettext-doc'
p13
aS'gettext-locale'
p14
aS'gettext'
p15
asS'pv'
p16
S'0.18.2'
p17
sS'depends'
p18
S'autoconf-native automake-native expat gettext-native gnu-config-native libtool-cross libtool-native ncurses virtual/arm-webos-linux-gnueabi-compilerlibs virtual/arm-webos-linux-gnueabi-gcc virtual/libc virtual/libiconv'
p19
sS'src_uri'
p20
S'ftp://ftp.gnu.org/gnu/gettext/gettext-0.18.2.tar.gz \t   file://parallel.patch           '
p21
sS'pe'
p22
S'0'
p23
sS'bbfile'
p24
S'/OE/webos/wpb/webos-ports/openembedded-core/meta/recipes-core/gettext/gettext_0.18.2.bb'
p25
sS'srcrev'
p26
(lp27
sS'pn'
p28
S'gettext'
p29
s.(dp0
S'pr'
p1
S'r1'
p2
sS'packagelist'
p3
(lp4
S'libffi-dbg'
p5
aS'libffi-staticdev'
p6
aS'libffi-dev'
p7
aS'libffi-doc'
p8
aS'libffi-locale'
p9
aS'libffi'
p10
asS'pv'
p11
S'3.0.11'
p12
sS'depends'
p13
S'autoconf-native automake-native gnu-config-native libtool-cross libtool-native virtual/arm-webos-linux-gnueabi-compilerlibs virtual/arm-webos-linux-gnueabi-gcc virtual/libc'
p14
sS'src_uri'
p15
S'ftp://sourceware.org/pub/libffi/libffi-3.0.11.tar.gz            file://0001-libffi-update-for-3.0.11.patch            file://add-aarch64-support.patch            file://aarch64-adding-build-support.patch '
p16
sS'pe'
p17
S'0'
p18
sS'bbfile'
p19
S'/OE/webos/wpb/webos-ports/openembedded-core/meta/recipes-gnome/libffi/libffi_3.0.11.bb'
p20
sS'srcrev'
p21
(lp22
sS'pn'
p23
S'libffi'
p24
s.(dp0
S'pr'
p1
S'r2'
p2
sS'packagelist'
p3
(lp4
S'glib-2.0-utils'
p5
aS'glib-2.0-bash-completion'
p6
aS'glib-2.0-codegen'
p7
aS'glib-2.0-dbg'
p8
aS'glib-2.0-staticdev'
p9
aS'glib-2.0-dev'
p10
aS'glib-2.0-doc'
p11
aS'glib-2.0-locale'
p12
aS'glib-2.0'
p13
asS'pv'
p14
S'2.34.3'
p15
sS'depends'
p16
S'autoconf-native automake-native gettext-native glib-2.0-native gnu-config-native gtk-doc-stub-native libffi libtool-cross libtool-native pkgconfig-native python-argparse-native virtual/arm-webos-linux-gnueabi-compilerlibs virtual/arm-webos-linux-gnueabi-gcc virtual/gettext virtual/libc virtual/libiconv zlib'
p17
sS'src_uri'
p18
S'http://ftp.gnome.org/pub/GNOME/sources/glib/2.34/glib-2.34.3.tar.xz            file://configure-libtool.patch            file://glib-2.0_fix_for_x32.patch            file://obsolete_automake_macros.patch            file://fix-conflicting-rand.patch            file://Makefile-ptest.patch            file://run-ptest           '
p19
sS'pe'
p20
S'1'
p21
sS'bbfile'
p22
S'/OE/webos/wpb/webos-ports/openembedded-core/meta/recipes-core/glib-2.0/glib-2.0_2.34.3.bb'
p23
sS'srcrev'
p24
(lp25
sS'pn'
p26
S'glib-2.0'
p27
s.(dp0
S'pr'
p1
S'r0'
p2
sS'packagelist'
p3
(lp4
sS'pv'
p5
S'2.8.7'
p6
sS'depends'
p7
S'autoconf-native automake-native gnu-config-native libtool-native'
p8
sS'src_uri'
p9
S'http://www.cmake.org/files/v2.8/cmake-2.8.7.tar.gz            file://support-oe-qt4-tools-names.patch'
p10
sS'pe'
p11
S'0'
p12
sS'bbfile'
p13
S'/OE/webos/wpb/webos-ports/meta-webos-ports/recipes-upstreamable/cmake/cmake-native_2.8.7.bb'
p14
sS'srcrev'
p15
(lp16
sS'pn'
p17
S'cmake-native'
p18
s.(dp0
S'pr'
p1
S'r1.0'
p2
sS'packagelist'
p3
(lp4
sS'pv'
p5
S'5.0.2'
p6
sS'depends'
p7
S'dbus-native zlib-native'
p8
sS'src_uri'
p9
S'      http://releases.qt-project.org/qt5/5.0.2/submodules/qtbase-opensource-src-5.0.2.tar.xz       file://0001-Add-linux-oe-g-platform.patch     file://0002-qlibraryinfo-allow-to-set-qt.conf-from-the-outside-u.patch     file://0003-Add-external-hostbindir-option.patch     file://0004-qt_functions-temporary-remove-isEmpty-check.patch     file://0007-configureapp-Prefix-default-LIBDIRS-and-INCDIRS-with.patch     file://0008-qt_module-Fix-pkgconfig-replacement.patch     file://0009-qt_module-Fix-paths-in-.prl-files.patch     file://0010-wayland-scanner-disable-silent-rules.patch     file://0011-configure-don-t-export-SYSTEM_VARIABLES-to-.qmake.va.patch     file://0012-configure.prf-Allow-to-add-extra-arguments-to-make.patch     file://0013-Disable-mkv8snapshot.patch     file://0014-enables-tslib-device-to-be-read-from-env-variable.patch     file://0015-qtbase-allow-build-of-examples.patch  file://0001-Always-build-uic.patch'
p10
sS'pe'
p11
S'0'
p12
sS'bbfile'
p13
S'/OE/webos/wpb/webos-ports/meta-qt5/recipes-qt/qt5/qtbase-native_5.0.2.bb'
p14
sS'srcrev'
p15
(lp16
sS'pn'
p17
S'qtbase-native'
p18
s.(dp0
S'pr'
p1
S'r0'
p2
sS'packagelist'
p3
(lp4
sS'pv'
p5
S'1.0.0~rc4-14'
p6
sS'depends'
p7
S'autoconf-native automake-native cmake-native gnu-config-native libtool-native'
p8
sS'src_uri'
p9
S'git://github.com/openwebos/cmake-modules-webos'
p10
sS'pe'
p11
S'0'
p12
sS'bbfile'
p13
S'/OE/webos/wpb/webos-ports/meta-webos-ports/recipes-webos/cmake-modules-webos/cmake-modules-webos-native.bb'
p14
sS'srcrev'
p15
(lp16
S'ba219557afb33d5df0b520e0ac52018dd487d343'
p17
asS'pn'
p18
S'cmake-modules-webos-native'
p19
s.(dp0
S'pr'
p1
S'r1'
p2
sS'packagelist'
p3
(lp4
S'libusb1-dbg'
p5
aS'libusb1-staticdev'
p6
aS'libusb1-dev'
p7
aS'libusb1-doc'
p8
aS'libusb1-locale'
p9
aS'libusb1'
p10
asS'pv'
p11
S'1.0.9'
p12
sS'depends'
p13
S'autoconf-native automake-native gnu-config-native libtool-cross libtool-native pkgconfig-native virtual/arm-webos-linux-gnueabi-compilerlibs virtual/arm-webos-linux-gnueabi-gcc virtual/libc'
p14
sS'src_uri'
p15
S'http://downloads.sourceforge.net/libusb/libusb-1.0.9.tar.bz2            file://obsolete_automake_macros.patch           '
p16
sS'pe'
p17
S'0'
p18
sS'bbfile'
p19
S'/OE/webos/wpb/webos-ports/openembedded-core/meta/recipes-support/libusb/libusb1_1.0.9.bb'
p20
sS'srcrev'
p21
(lp22
sS'pn'
p23
S'libusb1'
p24
s.(dp0
S'pr'
p1
S'r1'
p2
sS'packagelist'
p3
(lp4
S'libusb-compat-dbg'
p5
aS'libusb-compat-staticdev'
p6
aS'libusb-compat-dev'
p7
aS'libusb-compat-doc'
p8
aS'libusb-compat-locale'
p9
aS'libusb-compat-bin'
p10
aS'libusb-compat'
p11
asS'pv'
p12
S'0.1.4'
p13
sS'depends'
p14
S'autoconf-native automake-native gnu-config-native libtool-cross libtool-native libusb1 pkgconfig-native virtual/arm-webos-linux-gnueabi-compilerlibs virtual/arm-webos-linux-gnueabi-gcc virtual/libc'
p15
sS'src_uri'
p16
S'http://downloads.sourceforge.net/libusb/libusb-compat-0.1.4.tar.bz2            file://obsolete_automake_macros.patch           '
p17
sS'pe'
p18
S'1'
p19
sS'bbfile'
p20
S'/OE/webos/wpb/webos-ports/openembedded-core/meta/recipes-support/libusb/libusb-compat_0.1.4.bb'
p21
sS'srcrev'
p22
(lp23
sS'pn'
p24
S'libusb-compat'
p25
s.(dp0
S'pr'
p1
S'r6.0'
p2
sS'packagelist'
p3
(lp4
sS'pv'
p5
S'1.6.8'
p6
sS'depends'
p7
S'autoconf-native automake-native expat-native gettext-minimal-native gnu-config-native libtool-native pkgconfig-native update-rc.d-native virtual/libintl-native'
p8
sS'src_uri'
p9
S'http://dbus.freedesktop.org/releases/dbus/dbus-1.6.8.tar.gz            file://tmpdir.patch;            file://systemd-address.patch            file://dbus-1.init'
p10
sS'pe'
p11
S'0'
p12
sS'bbfile'
p13
S'virtual:native:/OE/webos/wpb/webos-ports/openembedded-core/meta/recipes-core/dbus/dbus_1.6.8.bb'
p14
sS'srcrev'
p15
(lp16
sS'pn'
p17
S'dbus-native'
p18
s.(dp0
S'pr'
p1
S'r13.0'
p2
sS'packagelist'
p3
(lp4
S'libopkg-dev'
p5
aS'libopkg-staticdev'
p6
aS'libopkg'
p7
aS'update-alternatives-cworth'
p8
aS'opkg-dbg'
p9
aS'opkg-staticdev'
p10
aS'opkg-dev'
p11
aS'opkg-doc'
p12
aS'opkg-locale'
p13
aS'opkg'
p14
asS'pv'
p15
S'0.1.8+svnr649'
p16
sS'depends'
p17
S'autoconf-native automake-native gnu-config-native libtool-cross libtool-native pkgconfig-native virtual/arm-webos-linux-gnueabi-compilerlibs virtual/arm-webos-linux-gnueabi-gcc virtual/libc'
p18
sS'src_uri'
p19
S'svn://opkg.googlecode.com/svn;module=trunk;protocol=http            file://obsolete_automake_macros.patch '
p20
sS'pe'
p21
S'1'
p22
sS'bbfile'
p23
S'/OE/webos/wpb/webos-ports/openembedded-core/meta/recipes-devtools/opkg/opkg_svn.bb'
p24
sS'srcrev'
p25
(lp26
S'649'
p27
asS'pn'
p28
S'opkg'
p29
s.(dp0
S'pr'
p1
S'r4'
p2
sS'packagelist'
p3
(lp4
S'libattr'
p5
aS'libattr-dev'
p6
aS'libattr-staticdev'
p7
aS'libattr-doc'
p8
aS'attr-dbg'
p9
aS'attr-staticdev'
p10
aS'attr-dev'
p11
aS'attr-doc'
p12
aS'attr-locale'
p13
aS'attr'
p14
asS'pv'
p15
S'2.4.46'
p16
sS'depends'
p17
S'autoconf-native automake-native gettext-native gnu-config-native libtool-cross libtool-native ncurses virtual/arm-webos-linux-gnueabi-compilerlibs virtual/arm-webos-linux-gnueabi-gcc virtual/gettext virtual/libc'
p18
sS'src_uri'
p19
S'http://download.savannah.gnu.org/releases/attr/attr-2.4.46.src.tar.gz            file://generic-syscalls.patch             file://relative-libdir.patch;striplevel=0            '
p20
sS'pe'
p21
S'0'
p22
sS'bbfile'
p23
S'/OE/webos/wpb/webos-ports/openembedded-core/meta/recipes-support/attr/attr_2.4.46.bb'
p24
sS'srcrev'
p25
(lp26
sS'pn'
p27
S'attr'
p28
s.(dp0
S'pr'
p1
S'r2.0'
p2
sS'packagelist'
p3
(lp4
S'qtbase-fonts'
p5
aS'qtbase-fonts-ttf-vera'
p6
aS'qtbase-fonts-ttf-dejavu'
p7
aS'qtbase-fonts-pfa'
p8
aS'qtbase-fonts-pfb'
p9
aS'qtbase-fonts-qpf'
p10
aS'qtbase-qmlplugins-dbg'
p11
aS'qtbase-tools-dbg'
p12
aS'qtbase-plugins-dbg'
p13
aS'qtbase-qmlplugins'
p14
aS'qtbase-tools'
p15
aS'qtbase-plugins'
p16
aS'qtbase-mkspecs'
p17
aS'qtbase-examples-dev'
p18
aS'qtbase-examples-staticdev'
p19
aS'qtbase-examples-dbg'
p20
aS'qtbase-examples'
p21
aS'qtbase-dbg'
p22
aS'qtbase-staticdev'
p23
aS'qtbase-dev'
p24
aS'qtbase-doc'
p25
aS'qtbase-locale'
p26
aS'qtbase'
p27
asS'pv'
p28
S'5.0.2'
p29
sS'depends'
p30
S'freetype glib-2.0 icu jpeg libpng openssl qtbase-native qtbase-native udev virtual/arm-webos-linux-gnueabi-compilerlibs virtual/arm-webos-linux-gnueabi-gcc virtual/egl virtual/libc virtual/libgles2 zlib'
p31
sS'src_uri'
p32
S'      http://releases.qt-project.org/qt5/5.0.2/submodules/qtbase-opensource-src-5.0.2.tar.xz       file://0001-Add-linux-oe-g-platform.patch     file://0002-qlibraryinfo-allow-to-set-qt.conf-from-the-outside-u.patch     file://0003-Add-external-hostbindir-option.patch     file://0004-qt_functions-temporary-remove-isEmpty-check.patch     file://0005-qmake-is-already-built-in-qtbase-native.patch     file://0006-Allow-building-a-separate-qmake-for-the-target.patch     file://0007-configureapp-Prefix-default-LIBDIRS-and-INCDIRS-with.patch     file://0008-qt_module-Fix-pkgconfig-replacement.patch     file://0009-qt_module-Fix-paths-in-.prl-files.patch     file://0010-wayland-scanner-disable-silent-rules.patch     file://0011-configure-don-t-export-SYSTEM_VARIABLES-to-.qmake.va.patch     file://0012-configure.prf-Allow-to-add-extra-arguments-to-make.patch     file://0013-Disable-mkv8snapshot.patch     file://0014-enables-tslib-device-to-be-read-from-env-variable.patch     file://0015-qtbase-allow-build-of-examples.patch     file://0018-QOpenGLPaintDevice-sub-area-support.patch     file://0019-Fix-FBO-restoring-in-QOpenGLTextureGlyphCache.patch     file://0020-Use-BGRA-extension-in-bindTexture.patch       file://0016-Allow-tslib-to-be-specified-at-configure-time.patch     file://0017-Rename-qAbs-Function-for-timeval.patch '
p33
sS'pe'
p34
S'0'
p35
sS'bbfile'
p36
S'/OE/webos/wpb/webos-ports/meta-qt5/recipes-qt/qt5/qtbase_5.0.2.bb'
p37
sS'srcrev'
p38
(lp39
sS'pn'
p40
S'qtbase'
p41
s.(dp0
S'pr'
p1
S'r3'
p2
sS'packagelist'
p3
(lp4
S'util-linux-agetty'
p5
aS'util-linux-fdisk'
p6
aS'util-linux-cfdisk'
p7
aS'util-linux-sfdisk'
p8
aS'util-linux-swaponoff'
p9
aS'util-linux-losetup'
p10
aS'util-linux-umount'
p11
aS'util-linux-mount'
p12
aS'util-linux-readprofile'
p13
aS'util-linux-libblkid'
p14
aS'util-linux-libmount'
p15
aS'util-linux-libmount-dev'
p16
aS'util-linux-libblkid-dev'
p17
aS'util-linux-libuuid'
p18
aS'util-linux-libuuid-dev'
p19
aS'util-linux-uuidgen'
p20
aS'util-linux-lscpu'
p21
aS'util-linux-fsck'
p22
aS'util-linux-blkid'
p23
aS'util-linux-mkfs'
p24
aS'util-linux-mcookie'
p25
aS'util-linux-reset'
p26
aS'util-linux-uuidd'
p27
aS'util-linux-dbg'
p28
aS'util-linux-staticdev'
p29
aS'util-linux-dev'
p30
aS'util-linux-doc'
p31
aS'util-linux-locale'
p32
aS'util-linux'
p33
asS'pv'
p34
S'2.22.2'
p35
sS'depends'
p36
S'autoconf-native automake-native gettext-native gnu-config-native libtool-cross libtool-native ncurses pkgconfig-native virtual/arm-webos-linux-gnueabi-compilerlibs virtual/arm-webos-linux-gnueabi-gcc virtual/gettext virtual/libc virtual/update-alternatives zlib'
p37
sS'src_uri'
p38
S'http://kernel.org/pub/linux/utils/util-linux/v2.22/util-linux-2.22.2.tar.bz2            file://MCONFIG            file://defines.h            file://make_include            file://swapargs.h             file://util-linux-ng-replace-siginterrupt.patch             file://util-linux-ng-2.16-mount_lock_path.patch             file://uclibc-__progname-conflict.patch             file://configure-sbindir.patch             file://fix-configure.patch             file://mbsalign-license.patch '
p39
sS'pe'
p40
S'0'
p41
sS'bbfile'
p42
S'/OE/webos/wpb/webos-ports/openembedded-core/meta/recipes-core/util-linux/util-linux_2.22.2.bb'
p43
sS'srcrev'
p44
(lp45
sS'pn'
p46
S'util-linux'
p47
s.(dp0
S'pr'
p1
S'r0'
p2
sS'packagelist'
p3
(lp4
sS'pv'
p5
S'1.22.2'
p6
sS'depends'
p7
S'autoconf-native automake-native gnu-config-native libtool-native'
p8
sS'src_uri'
p9
S'ftp://ftp.gnu.org/gnu/groff/groff-1.22.2.tar.gz'
p10
sS'pe'
p11
S'0'
p12
sS'bbfile'
p13
S'virtual:native:/OE/webos/wpb/webos-ports/openembedded-core/meta/recipes-extended/groff/groff_1.22.2.bb'
p14
sS'srcrev'
p15
(lp16
sS'pn'
p17
S'groff-native'
p18
s.(dp0
S'pr'
p1
S'r0'
p2
sS'packagelist'
p3
(lp4
sS'pv'
p5
S'2.10.07'
p6
sS'depends'
p7
S'autoconf-native automake-native gnu-config-native groff-native libtool-native'
p8
sS'src_uri'
p9
S'http://www.nasm.us/pub/nasm/releasebuilds/2.10.07/nasm-2.10.07.tar.bz2 '
p10
sS'pe'
p11
S'0'
p12
sS'bbfile'
p13
S'virtual:native:/OE/webos/wpb/webos-ports/openembedded-core/meta/recipes-devtools/nasm/nasm_2.10.07.bb'
p14
sS'srcrev'
p15
(lp16
sS'pn'
p17
S'nasm-native'
p18
s.(dp0
S'pr'
p1
S'r0'
p2
sS'packagelist'
p3
(lp4
S'usbutils-dbg'
p5
aS'usbutils-staticdev'
p6
aS'usbutils-dev'
p7
aS'usbutils-doc'
p8
aS'usbutils-locale'
p9
aS'usbutils'
p10
aS'usbutils-ids'
p11
asS'pv'
p12
S'006'
p13
sS'depends'
p14
S'autoconf-native automake-native gnu-config-native libtool-cross libtool-native libusb virtual/arm-webos-linux-gnueabi-compilerlibs virtual/arm-webos-linux-gnueabi-gcc virtual/libc zlib'
p15
sS'src_uri'
p16
S'http://kernel.org/pub/linux/utils/usb/usbutils/usbutils-006.tar.gz            file://usb-devices-avoid-dependency-on-bash.patch            file://Fix-NULL-pointer-crash.patch'
p17
sS'pe'
p18
S'0'
p19
sS'bbfile'
p20
S'/OE/webos/wpb/webos-ports/openembedded-core/meta/recipes-bsp/usbutils/usbutils_006.bb'
p21
sS'srcrev'
p22
(lp23
sS'pn'
p24
S'usbutils'
p25
s.(dp0
S'pr'
p1
S'r0.0'
p2
sS'packagelist'
p3
(lp4
S'libkmod'
p5
aS'kmod-dbg'
p6
aS'kmod-staticdev'
p7
aS'kmod-dev'
p8
aS'kmod-doc'
p9
aS'kmod-locale'
p10
aS'kmod'
p11
asS'pv'
p12
S'9'
p13
sS'depends'
p14
S'autoconf-native automake-native gnu-config-native gtk-doc-stub-native libtool-cross libtool-native pkgconfig-native virtual/arm-webos-linux-gnueabi-compilerlibs virtual/arm-webos-linux-gnueabi-gcc virtual/libc virtual/update-alternatives'
p15
sS'src_uri'
p16
S'git://git.kernel.org/pub/scm/utils/kernel/kmod/kmod.git            file://depmod-search.conf            file://0001-man-disable-man-page-generation-because-we-don-t-hav.patch           '
p17
sS'pe'
p18
S'0'
p19
sS'bbfile'
p20
S'/OE/webos/wpb/webos-ports/openembedded-core/meta/recipes-kernel/kmod/kmod_git.bb'
p21
sS'srcrev'
p22
(lp23
S'62081c0f68905b22f375156d4532fd37fa5c8d33'
p24
asS'pn'
p25
S'kmod'
p26
s.(dp0
S'pr'
p1
S'r0'
p2
sS'packagelist'
p3
(lp4
sS'pv'
p5
S'1.1.28'
p6
sS'depends'
p7
S'autoconf-native automake-native gnu-config-native libtool-native libxml2-native pkgconfig-native'
p8
sS'src_uri'
p9
S'ftp://xmlsoft.org/libxslt//libxslt-1.1.28.tar.gz            file://pkgconfig_fix.patch'
p10
sS'pe'
p11
S'0'
p12
sS'bbfile'
p13
S'virtual:native:/OE/webos/wpb/webos-ports/openembedded-core/meta/recipes-support/libxslt/libxslt_1.1.28.bb'
p14
sS'srcrev'
p15
(lp16
sS'pn'
p17
S'libxslt-native'
p18
s.(dp0
S'pr'
p1
S'r3'
p2
sS'packagelist'
p3
(lp4
S'libacl'
p5
aS'libacl-dev'
p6
aS'libacl-staticdev'
p7
aS'libacl-doc'
p8
aS'acl-dbg'
p9
aS'acl-staticdev'
p10
aS'acl-dev'
p11
aS'acl-doc'
p12
aS'acl-locale'
p13
aS'acl'
p14
asS'pv'
p15
S'2.2.51'
p16
sS'depends'
p17
S'attr autoconf-native automake-native gettext-native gnu-config-native libtool-cross libtool-native virtual/arm-webos-linux-gnueabi-compilerlibs virtual/arm-webos-linux-gnueabi-gcc virtual/gettext virtual/libc'
p18
sS'src_uri'
p19
S'http://download.savannah.gnu.org/releases/acl/acl-2.2.51.src.tar.gz file://relative-libdir.patch;striplevel=0            '
p20
sS'pe'
p21
S'0'
p22
sS'bbfile'
p23
S'/OE/webos/wpb/webos-ports/openembedded-core/meta/recipes-support/attr/acl_2.2.51.bb'
p24
sS'srcrev'
p25
(lp26
sS'pn'
p27
S'acl'
p28
s.(dp0
S'pr'
p1
S'r0'
p2
sS'packagelist'
p3
(lp4
S'libicudata'
p5
aS'libicuuc'
p6
aS'libicui18n'
p7
aS'libicule'
p8
aS'libiculx'
p9
aS'libicutu'
p10
aS'libicuio'
p11
aS'icu-dbg'
p12
aS'icu-staticdev'
p13
aS'icu-dev'
p14
aS'icu-doc'
p15
aS'icu-locale'
p16
aS'icu'
p17
asS'pv'
p18
S'50.1.2'
p19
sS'depends'
p20
S'autoconf-native automake-native gnu-config-native icu-native libtool-cross libtool-native pkgconfig-native virtual/arm-webos-linux-gnueabi-compilerlibs virtual/arm-webos-linux-gnueabi-gcc virtual/libc'
p21
sS'src_uri'
p22
S'http://download.icu-project.org/files/icu4c/50.1.2/icu4c-50_1_2-src.tgz'
p23
sS'pe'
p24
S'0'
p25
sS'bbfile'
p26
S'/OE/webos/wpb/webos-ports/openembedded-core/meta/recipes-support/icu/icu_50.1.2.bb'
p27
sS'srcrev'
p28
(lp29
sS'pn'
p30
S'icu'
p31
s.(dp0
S'pr'
p1
S'r0'
p2
sS'packagelist'
p3
(lp4
S'libpng-dbg'
p5
aS'libpng-staticdev'
p6
aS'libpng-dev'
p7
aS'libpng-doc'
p8
aS'libpng-locale'
p9
aS'libpng'
p10
asS'pv'
p11
S'1.6.0'
p12
sS'depends'
p13
S'autoconf-native automake-native gnu-config-native libtool-cross libtool-native pkgconfig-native virtual/arm-webos-linux-gnueabi-compilerlibs virtual/arm-webos-linux-gnueabi-gcc virtual/libc zlib'
p14
sS'src_uri'
p15
S'http://downloads.sourceforge.net/project/libpng/libpng16/1.6.0/libpng-1.6.0.tar.xz           '
p16
sS'pe'
p17
S'0'
p18
sS'bbfile'
p19
S'/OE/webos/wpb/webos-ports/openembedded-core/meta/recipes-multimedia/libpng/libpng_1.6.0.bb'
p20
sS'srcrev'
p21
(lp22
sS'pn'
p23
S'libpng'
p24
s.(dp0
S'pr'
p1
S'r1'
p2
sS'packagelist'
p3
(lp4
S'libhybris-dbg'
p5
aS'libhybris-staticdev'
p6
aS'libhybris-dev'
p7
aS'libhybris-doc'
p8
aS'libhybris-locale'
p9
aS'libhybris'
p10
asS'pv'
p11
S'0.1.0+gitrAUTOINC+df8dabcdc0c8fed38318bad3fe8fbcd240b6737b'
p12
sS'depends'
p13
S'autoconf-native automake-native gnu-config-native libtool-cross libtool-native virtual/arm-webos-linux-gnueabi-compilerlibs virtual/arm-webos-linux-gnueabi-gcc virtual/libc'
p14
sS'src_uri'
p15
S'git://github.com/webOS-ports/libhybris.git;branch=webOS-ports/master;protocol=git'
p16
sS'pe'
p17
S'1'
p18
sS'bbfile'
p19
S'/OE/webos/wpb/webos-ports/meta-smartphone/meta-android/recipes-core/libhybris/libhybris_git.bb'
p20
sS'srcrev'
p21
(lp22
S'df8dabcdc0c8fed38318bad3fe8fbcd240b6737b'
p23
asS'pn'
p24
S'libhybris'
p25
s.(dp0
S'pr'
p1
S'r2'
p2
sS'packagelist'
p3
(lp4
S'jpeg-tools'
p5
aS'libturbojpeg'
p6
aS'libjpeg-turbo-dbg'
p7
aS'libjpeg-turbo-staticdev'
p8
aS'libjpeg-turbo-dev'
p9
aS'libjpeg-turbo-doc'
p10
aS'libjpeg-turbo-locale'
p11
aS'libjpeg-turbo'
p12
asS'pv'
p13
S'8d+1.2.1'
p14
sS'depends'
p15
S'autoconf-native automake-native gnu-config-native libtool-cross libtool-native nasm-native pkgconfig-native virtual/arm-webos-linux-gnueabi-compilerlibs virtual/arm-webos-linux-gnueabi-gcc virtual/libc'
p16
sS'src_uri'
p17
S'svn://libjpeg-turbo.svn.sourceforge.net/svnroot/libjpeg-turbo;protocol=https;module=trunk'
p18
sS'pe'
p19
S'0'
p20
sS'bbfile'
p21
S'/OE/webos/wpb/webos-ports/meta-openembedded/meta-oe/recipes-core/jpeg/libjpeg-turbo_svn.bb'
p22
sS'srcrev'
p23
(lp24
S'837'
p25
asS'pn'
p26
S'libjpeg-turbo'
p27
s.(dp0
S'pr'
p1
S'r7'
p2
sS'packagelist'
p3
(lp4
S'libgudev'
p5
aS'libgudev-dev'
p6
aS'libgudev-dbg'
p7
aS'libudev'
p8
aS'libudev-dev'
p9
aS'libudev-dbg'
p10
aS'udev-utils'
p11
aS'udev-cache'
p12
aS'udev-dbg'
p13
aS'udev-staticdev'
p14
aS'udev-dev'
p15
aS'udev-doc'
p16
aS'udev-locale'
p17
aS'udev'
p18
asS'pv'
p19
S'182'
p20
sS'depends'
p21
S'acl autoconf-native automake-native glib-2.0 gnu-config-native gperf-native libtool-cross libtool-native libusb libxslt-native module-init-tools pciutils pkgconfig-native update-rc.d-native usbutils util-linux virtual/arm-webos-linux-gnueabi-compilerlibs virtual/arm-webos-linux-gnueabi-gcc virtual/libc'
p22
sS'src_uri'
p23
S'http://kernel.org/pub/linux/utils/kernel/hotplug/udev-182.tar.gz            file://0001-Fixing-keyboard_force_release.sh-shell-script-path.patch            file://run.rules            file://udev.rules            file://devfs-udev.rules            file://links.conf            file://permissions.rules            file://local.rules            file://udev-cache            file://udev-cache.default            file://init            file://volatiles'
p24
sS'pe'
p25
S'0'
p26
sS'bbfile'
p27
S'/OE/webos/wpb/webos-ports/openembedded-core/meta/recipes-core/udev/udev_182.bb'
p28
sS'srcrev'
p29
(lp30
sS'pn'
p31
S'udev'
p32
s.(dp0
S'pr'
p1
S'r15.0'
p2
sS'packagelist'
p3
(lp4
S'openssl-engines'
p5
aS'openssl-engines-dbg'
p6
aS'libcrypto'
p7
aS'libssl'
p8
aS'openssl-misc'
p9
aS'openssl-dbg'
p10
aS'openssl-staticdev'
p11
aS'openssl-dev'
p12
aS'openssl-doc'
p13
aS'openssl-locale'
p14
aS'openssl'
p15
asS'pv'
p16
S'1.0.1e'
p17
sS'depends'
p18
S'ocf-linux perl-native-runtime pkgconfig-native virtual/arm-webos-linux-gnueabi-compilerlibs virtual/arm-webos-linux-gnueabi-gcc virtual/libc virtual/update-alternatives'
p19
sS'src_uri'
p20
S'http://www.openssl.org/source/openssl-1.0.1e.tar.gz            file://configure-targets.patch             file://shared-libs.patch             file://oe-ldflags.patch             file://engines-install-in-libdir-ssl.patch             file://openssl-fix-link.patch             file://debian/version-script.patch             file://debian/pic.patch             file://debian/c_rehash-compat.patch             file://debian/ca.patch             file://debian/make-targets.patch             file://debian/no-rpath.patch             file://debian/man-dir.patch             file://debian/man-section.patch             file://debian/no-symbolic.patch             file://debian/debian-targets.patch             file://openssl_fix_for_x32.patch             file://find.pl            '
p21
sS'pe'
p22
S'0'
p23
sS'bbfile'
p24
S'/OE/webos/wpb/webos-ports/openembedded-core/meta/recipes-connectivity/openssl/openssl_1.0.1e.bb'
p25
sS'srcrev'
p26
(lp27
sS'pn'
p28
S'openssl'
p29
s.(dp0
S'pr'
p1
S'r2'
p2
sS'packagelist'
p3
(lp4
S'base-passwd-update'
p5
aS'base-passwd-dbg'
p6
aS'base-passwd-staticdev'
p7
aS'base-passwd-dev'
p8
aS'base-passwd-doc'
p9
aS'base-passwd-locale'
p10
aS'base-passwd'
p11
asS'pv'
p12
S'3.5.26'
p13
sS'depends'
p14
S'autoconf-native automake-native gnu-config-native libtool-cross libtool-native virtual/arm-webos-linux-gnueabi-compilerlibs virtual/arm-webos-linux-gnueabi-gcc virtual/libc'
p15
sS'src_uri'
p16
S'ftp://ftp.debian.org/debian/pool/main/b/base-passwd/base-passwd_3.5.26.tar.gz            file://nobash.patch            file://input.patch'
p17
sS'pe'
p18
S'0'
p19
sS'bbfile'
p20
S'/OE/webos/wpb/webos-ports/openembedded-core/meta/recipes-core/base-passwd/base-passwd_3.5.26.bb'
p21
sS'srcrev'
p22
(lp23
sS'pn'
p24
S'base-passwd'
p25
s.(dp0
S'pr'
p1
S'r8'
p2
sS'packagelist'
p3
(lp4
sS'pv'
p5
S'4.1.4.3'
p6
sS'depends'
p7
S'autoconf-native automake-native gettext-minimal-native gnu-config-native libtool-native'
p8
sS'src_uri'
p9
S'http://pkg-shadow.alioth.debian.org/releases/shadow-4.1.4.3.tar.bz2            file://shadow.automake-1.11.patch            file://shadow-4.1.3-dots-in-usernames.patch            file://shadow-4.1.4.2-env-reset-keep-locale.patch            file://add_root_cmd_options.patch            file://disable-syslog.patch            file://useradd.patch            file://shadow_fix_for_automake-1.12.patch            '
p10
sS'pe'
p11
S'0'
p12
sS'bbfile'
p13
S'/OE/webos/wpb/webos-ports/openembedded-core/meta/recipes-extended/shadow/shadow-native_4.1.4.3.bb'
p14
sS'srcrev'
p15
(lp16
sS'pn'
p17
S'shadow-native'
p18
s.(dp0
S'pr'
p1
S'r0'
p2
sS'packagelist'
p3
(lp4
S'libpbnjson-dbg'
p5
aS'libpbnjson-staticdev'
p6
aS'libpbnjson-dev'
p7
aS'libpbnjson-doc'
p8
aS'libpbnjson-locale'
p9
aS'libpbnjson'
p10
asS'pv'
p11
S'1.3.0-13'
p12
sS'depends'
p13
S'autoconf-native automake-native cmake-modules-webos-native cmake-native gnu-config-native libtool-cross libtool-native pkgconfig-native virtual/arm-webos-linux-gnueabi-compilerlibs virtual/arm-webos-linux-gnueabi-gcc virtual/libc yajl'
p14
sS'src_uri'
p15
S'git://github.com/openwebos/libpbnjson'
p16
sS'pe'
p17
S'0'
p18
sS'bbfile'
p19
S'/OE/webos/wpb/webos-ports/meta-webos-ports/recipes-webos/libpbnjson/libpbnjson.bb'
p20
sS'srcrev'
p21
(lp22
S'42c1559c878d1c4758794c86415739bcf7e4b17e'
p23
asS'pn'
p24
S'libpbnjson'
p25
s.(dp0
S'pr'
p1
S'r0'
p2
sS'packagelist'
p3
(lp4
S'pmloglib-dbg'
p5
aS'pmloglib-staticdev'
p6
aS'pmloglib-dev'
p7
aS'pmloglib-doc'
p8
aS'pmloglib-locale'
p9
aS'pmloglib'
p10
asS'pv'
p11
S'3.0.0-30'
p12
sS'depends'
p13
S'autoconf-native automake-native cmake-modules-webos-native cmake-native glib-2.0 gnu-config-native libpbnjson libtool-cross libtool-native pkgconfig-native virtual/arm-webos-linux-gnueabi-compilerlibs virtual/arm-webos-linux-gnueabi-gcc virtual/libc'
p14
sS'src_uri'
p15
S'git://github.com/openwebos/pmloglib'
p16
sS'pe'
p17
S'0'
p18
sS'bbfile'
p19
S'/OE/webos/wpb/webos-ports/meta-webos-ports/recipes-webos/pmloglib/pmloglib.bb'
p20
sS'srcrev'
p21
(lp22
S'9ddcaf8601403f9fb048de4db3f7eca3bf506577'
p23
asS'pn'
p24
S'pmloglib'
p25
s.(dp0
S'pr'
p1
S'r4'
p2
sS'packagelist'
p3
(lp4
S'readline-dbg'
p5
aS'readline-staticdev'
p6
aS'readline-dev'
p7
aS'readline-doc'
p8
aS'readline-locale'
p9
aS'readline'
p10
asS'pv'
p11
S'6.2'
p12
sS'depends'
p13
S'autoconf-native automake-native gnu-config-native libtool-cross libtool-native ncurses virtual/arm-webos-linux-gnueabi-compilerlibs virtual/arm-webos-linux-gnueabi-gcc virtual/libc'
p14
sS'src_uri'
p15
S'ftp://ftp.gnu.org/gnu/readline/readline-6.2.tar.gz;name=archive            file://configure-fix.patch            file://norpath.patch            file://acinclude.m4 ftp://ftp.gnu.org/gnu/readline/readline-6.2-patches/readline62-001;name=patch1;apply=yes;striplevel=0 ftp://ftp.gnu.org/gnu/readline/readline-6.2-patches/readline62-002;name=patch2;apply=yes;striplevel=0 ftp://ftp.gnu.org/gnu/readline/readline-6.2-patches/readline62-003;name=patch3;apply=yes;striplevel=0 ftp://ftp.gnu.org/gnu/readline/readline-6.2-patches/readline62-004;name=patch4;apply=yes;striplevel=0 '
p16
sS'pe'
p17
S'0'
p18
sS'bbfile'
p19
S'/OE/webos/wpb/webos-ports/openembedded-core/meta/recipes-core/readline/readline_6.2.bb'
p20
sS'srcrev'
p21
(lp22
sS'pn'
p23
S'readline'
p24
s.(dp0
S'pr'
p1
S'r0.0'
p2
sS'packagelist'
p3
(lp4
sS'pv'
p5
S'5.0.2'
p6
sS'depends'
p7
S'qtbase-native'
p8
sS'src_uri'
p9
S'      http://releases.qt-project.org/qt5/5.0.2/submodules/qtjsbackend-opensource-src-5.0.2.tar.xz      file://0001-Install-the-mkv8snapshot-tool-to-the-native-side.patch '
p10
sS'pe'
p11
S'0'
p12
sS'bbfile'
p13
S'/OE/webos/wpb/webos-ports/meta-qt5/recipes-qt/qt5/qtjsbackend-native_5.0.2.bb'
p14
sS'srcrev'
p15
(lp16
sS'pn'
p17
S'qtjsbackend-native'
p18
s.(dp0
S'pr'
p1
S'r13'
p2
sS'packagelist'
p3
(lp4
S'shadow-dbg'
p5
aS'shadow-staticdev'
p6
aS'shadow-dev'
p7
aS'shadow-doc'
p8
aS'shadow-locale'
p9
aS'shadow'
p10
asS'pv'
p11
S'4.1.4.3'
p12
sS'depends'
p13
S'autoconf-native automake-native gettext-native gnu-config-native libtool-cross libtool-native shadow-native virtual/arm-webos-linux-gnueabi-compilerlibs virtual/arm-webos-linux-gnueabi-gcc virtual/gettext virtual/libc virtual/update-alternatives'
p14
sS'src_uri'
p15
S'http://pkg-shadow.alioth.debian.org/releases/shadow-4.1.4.3.tar.bz2            file://login_defs_pam.sed                        file://shadow.automake-1.11.patch            file://shadow-4.1.3-dots-in-usernames.patch            file://shadow-4.1.4.2-env-reset-keep-locale.patch            file://shadow-4.1.4.2-groupmod-pam-check.patch            file://shadow-4.1.4.2-su_no_sanitize_env.patch            file://shadow-update-pam-conf.patch            file://shadow_fix_for_automake-1.12.patch            file://slackware_fix_for_glib-2.17_crypt.patch            '
p16
sS'pe'
p17
S'0'
p18
sS'bbfile'
p19
S'/OE/webos/wpb/webos-ports/openembedded-core/meta/recipes-extended/shadow/shadow_4.1.4.3.bb'
p20
sS'srcrev'
p21
(lp22
sS'pn'
p23
S'shadow'
p24
s.(dp0
S'pr'
p1
S'r3'
p2
sS'packagelist'
p3
(lp4
sS'pv'
p5
S'4.1.4.3'
p6
sS'depends'
p7
S'base-passwd virtual/arm-webos-linux-gnueabi-compilerlibs virtual/arm-webos-linux-gnueabi-gcc virtual/libc'
p8
sS'src_uri'
p9
S'file://login.defs_shadow-sysroot'
p10
sS'pe'
p11
S'0'
p12
sS'bbfile'
p13
S'/OE/webos/wpb/webos-ports/openembedded-core/meta/recipes-extended/shadow/shadow-sysroot_4.1.4.3.bb'
p14
sS'srcrev'
p15
(lp16
sS'pn'
p17
S'shadow-sysroot'
p18
s.(dp0
S'pr'
p1
S'r0.0'
p2
sS'packagelist'
p3
(lp4
S'qtxmlpatterns-qmlplugins-dbg'
p5
aS'qtxmlpatterns-tools-dbg'
p6
aS'qtxmlpatterns-plugins-dbg'
p7
aS'qtxmlpatterns-qmlplugins'
p8
aS'qtxmlpatterns-tools'
p9
aS'qtxmlpatterns-plugins'
p10
aS'qtxmlpatterns-mkspecs'
p11
aS'qtxmlpatterns-examples-dev'
p12
aS'qtxmlpatterns-examples-staticdev'
p13
aS'qtxmlpatterns-examples-dbg'
p14
aS'qtxmlpatterns-examples'
p15
aS'qtxmlpatterns-dbg'
p16
aS'qtxmlpatterns-staticdev'
p17
aS'qtxmlpatterns-dev'
p18
aS'qtxmlpatterns-doc'
p19
aS'qtxmlpatterns-locale'
p20
aS'qtxmlpatterns'
p21
asS'pv'
p22
S'5.0.2'
p23
sS'depends'
p24
S'qtbase qtbase-native virtual/arm-webos-linux-gnueabi-compilerlibs virtual/arm-webos-linux-gnueabi-gcc virtual/libc'
p25
sS'src_uri'
p26
S'      http://releases.qt-project.org/qt5/5.0.2/submodules/qtxmlpatterns-opensource-src-5.0.2.tar.xz '
p27
sS'pe'
p28
S'0'
p29
sS'bbfile'
p30
S'/OE/webos/wpb/webos-ports/meta-qt5/recipes-qt/qt5/qtxmlpatterns_5.0.2.bb'
p31
sS'srcrev'
p32
(lp33
sS'pn'
p34
S'qtxmlpatterns'
p35
s.(dp0
S'pr'
p1
S'r0.0'
p2
sS'packagelist'
p3
(lp4
S'qtjsbackend-qmlplugins-dbg'
p5
aS'qtjsbackend-tools-dbg'
p6
aS'qtjsbackend-plugins-dbg'
p7
aS'qtjsbackend-qmlplugins'
p8
aS'qtjsbackend-tools'
p9
aS'qtjsbackend-plugins'
p10
aS'qtjsbackend-mkspecs'
p11
aS'qtjsbackend-examples-dev'
p12
aS'qtjsbackend-examples-staticdev'
p13
aS'qtjsbackend-examples-dbg'
p14
aS'qtjsbackend-examples'
p15
aS'qtjsbackend-dbg'
p16
aS'qtjsbackend-staticdev'
p17
aS'qtjsbackend-dev'
p18
aS'qtjsbackend-doc'
p19
aS'qtjsbackend-locale'
p20
aS'qtjsbackend'
p21
asS'pv'
p22
S'5.0.2'
p23
sS'depends'
p24
S'qtbase qtbase-native qtjsbackend-native virtual/arm-webos-linux-gnueabi-compilerlibs virtual/arm-webos-linux-gnueabi-gcc virtual/libc'
p25
sS'src_uri'
p26
S'      http://releases.qt-project.org/qt5/5.0.2/submodules/qtjsbackend-opensource-src-5.0.2.tar.xz       file://0002-v8.pro-respect-external-host-bindir-when-set.patch       file://0003-V8-Cleanup-hardfp-ABI-detection.-This-work-was-trigg.patch '
p27
sS'pe'
p28
S'0'
p29
sS'bbfile'
p30
S'/OE/webos/wpb/webos-ports/meta-qt5/recipes-qt/qt5/qtjsbackend_5.0.2.bb'
p31
sS'srcrev'
p32
(lp33
sS'pn'
p34
S'qtjsbackend'
p35
s.(dp0
S'pr'
p1
S'r0.0'
p2
sS'packagelist'
p3
(lp4
S'qtsvg-qmlplugins-dbg'
p5
aS'qtsvg-tools-dbg'
p6
aS'qtsvg-plugins-dbg'
p7
aS'qtsvg-qmlplugins'
p8
aS'qtsvg-tools'
p9
aS'qtsvg-plugins'
p10
aS'qtsvg-mkspecs'
p11
aS'qtsvg-examples-dev'
p12
aS'qtsvg-examples-staticdev'
p13
aS'qtsvg-examples-dbg'
p14
aS'qtsvg-examples'
p15
aS'qtsvg-dbg'
p16
aS'qtsvg-staticdev'
p17
aS'qtsvg-dev'
p18
aS'qtsvg-doc'
p19
aS'qtsvg-locale'
p20
aS'qtsvg'
p21
asS'pv'
p22
S'5.0.2'
p23
sS'depends'
p24
S'qtbase qtbase-native virtual/arm-webos-linux-gnueabi-compilerlibs virtual/arm-webos-linux-gnueabi-gcc virtual/libc'
p25
sS'src_uri'
p26
S'      http://releases.qt-project.org/qt5/5.0.2/submodules/qtsvg-opensource-src-5.0.2.tar.xz '
p27
sS'pe'
p28
S'0'
p29
sS'bbfile'
p30
S'/OE/webos/wpb/webos-ports/meta-qt5/recipes-qt/qt5/qtsvg_5.0.2.bb'
p31
sS'srcrev'
p32
(lp33
sS'pn'
p34
S'qtsvg'
p35
s.(dp0
S'pr'
p1
S'r5'
p2
sS'packagelist'
p3
(lp4
S'libcap-dbg'
p5
aS'libcap-staticdev'
p6
aS'libcap-dev'
p7
aS'libcap-doc'
p8
aS'libcap-locale'
p9
aS'libcap-bin'
p10
aS'libcap'
p11
asS'pv'
p12
S'2.22'
p13
sS'depends'
p14
S'attr perl-native-runtime virtual/arm-webos-linux-gnueabi-compilerlibs virtual/arm-webos-linux-gnueabi-gcc virtual/libc'
p15
sS'src_uri'
p16
S'ftp://ftp.debian.org/debian/pool/main/libc/libcap2/libcap2_2.22.orig.tar.gz'
p17
sS'pe'
p18
S'0'
p19
sS'bbfile'
p20
S'/OE/webos/wpb/webos-ports/openembedded-core/meta/recipes-support/libcap/libcap_2.22.bb'
p21
sS'srcrev'
p22
(lp23
sS'pn'
p24
S'libcap'
p25
s.(dp0
S'pr'
p1
S'r6.0'
p2
sS'packagelist'
p3
(lp4
S'dbus-lib'
p5
aS'dbus-dbg'
p6
aS'dbus-staticdev'
p7
aS'dbus-dev'
p8
aS'dbus-doc'
p9
aS'dbus-locale'
p10
aS'dbus'
p11
asS'pv'
p12
S'1.6.8'
p13
sS'depends'
p14
S'autoconf-native automake-native base-passwd expat gettext-native gnu-config-native libtool-cross libtool-native pkgconfig-native shadow shadow-native shadow-sysroot update-rc.d-native virtual/arm-webos-linux-gnueabi-compilerlibs virtual/arm-webos-linux-gnueabi-gcc virtual/gettext virtual/libc virtual/libintl'
p15
sS'src_uri'
p16
S'http://dbus.freedesktop.org/releases/dbus/dbus-1.6.8.tar.gz            file://tmpdir.patch;            file://systemd-address.patch            file://dbus-1.init'
p17
sS'pe'
p18
S'0'
p19
sS'bbfile'
p20
S'/OE/webos/wpb/webos-ports/openembedded-core/meta/recipes-core/dbus/dbus_1.6.8.bb'
p21
sS'srcrev'
p22
(lp23
sS'pn'
p24
S'dbus'
p25
s.(dp0
S'pr'
p1
S'r0'
p2
sS'packagelist'
p3
(lp4
S'luna-service2-dbg'
p5
aS'luna-service2-staticdev'
p6
aS'luna-service2-dev'
p7
aS'luna-service2-doc'
p8
aS'luna-service2-locale'
p9
aS'luna-service2'
p10
asS'pv'
p11
S'3.3.0-150'
p12
sS'depends'
p13
S'autoconf-native automake-native cjson cmake-modules-webos-native cmake-native glib-2.0 gnu-config-native libtool-cross libtool-native pkgconfig-native pmloglib virtual/arm-webos-linux-gnueabi-compilerlibs virtual/arm-webos-linux-gnueabi-gcc virtual/libc'
p14
sS'src_uri'
p15
S'git://github.com/openwebos/luna-service2'
p16
sS'pe'
p17
S'0'
p18
sS'bbfile'
p19
S'/OE/webos/wpb/webos-ports/meta-webos-ports/recipes-webos/luna-service2/luna-service2.bb'
p20
sS'srcrev'
p21
(lp22
S'dbe4ae6ee6ec907ca7cfbc4966587476cb657baf'
p23
asS'pn'
p24
S'luna-service2'
p25
s.(dp0
S'pr'
p1
S'r0'
p2
sS'packagelist'
p3
(lp4
S'cjson-dbg'
p5
aS'cjson-staticdev'
p6
aS'cjson-dev'
p7
aS'cjson-doc'
p8
aS'cjson-locale'
p9
aS'cjson'
p10
asS'pv'
p11
S'1.8.0-35'
p12
sS'depends'
p13
S'autoconf-native automake-native gnu-config-native libtool-cross libtool-native pkgconfig-native virtual/arm-webos-linux-gnueabi-compilerlibs virtual/arm-webos-linux-gnueabi-gcc virtual/libc'
p14
sS'src_uri'
p15
S'git://github.com/openwebos/cjson'
p16
sS'pe'
p17
S'0'
p18
sS'bbfile'
p19
S'/OE/webos/wpb/webos-ports/meta-webos-ports/recipes-webos/cjson/cjson.bb'
p20
sS'srcrev'
p21
(lp22
S'43de024867b8d38f607f04cfede8608ce532a8e6'
p23
asS'pn'
p24
S'cjson'
p25
s.(dp0
S'pr'
p1
S'r0.0'
p2
sS'packagelist'
p3
(lp4
S'qtdeclarative-qmlplugins-dbg'
p5
aS'qtdeclarative-tools-dbg'
p6
aS'qtdeclarative-plugins-dbg'
p7
aS'qtdeclarative-qmlplugins'
p8
aS'qtdeclarative-tools'
p9
aS'qtdeclarative-plugins'
p10
aS'qtdeclarative-mkspecs'
p11
aS'qtdeclarative-examples-dev'
p12
aS'qtdeclarative-examples-staticdev'
p13
aS'qtdeclarative-examples-dbg'
p14
aS'qtdeclarative-examples'
p15
aS'qtdeclarative-dbg'
p16
aS'qtdeclarative-staticdev'
p17
aS'qtdeclarative-dev'
p18
aS'qtdeclarative-doc'
p19
aS'qtdeclarative-locale'
p20
aS'qtdeclarative'
p21
asS'pv'
p22
S'5.0.2'
p23
sS'depends'
p24
S'qtbase-native qtjsbackend qtsvg qtxmlpatterns virtual/arm-webos-linux-gnueabi-compilerlibs virtual/arm-webos-linux-gnueabi-gcc virtual/libc'
p25
sS'src_uri'
p26
S'      http://releases.qt-project.org/qt5/5.0.2/submodules/qtdeclarative-opensource-src-5.0.2.tar.xz       file://0001-qmltestexample-fix-link.patch '
p27
sS'pe'
p28
S'0'
p29
sS'bbfile'
p30
S'/OE/webos/wpb/webos-ports/meta-qt5/recipes-qt/qt5/qtdeclarative_5.0.2.bb'
p31
sS'srcrev'
p32
(lp33
sS'pn'
p34
S'qtdeclarative'
p35
s.(dp0
S'pr'
p1
S'r1'
p2
sS'packagelist'
p3
(lp4
S'libogg-dbg'
p5
aS'libogg-staticdev'
p6
aS'libogg-dev'
p7
aS'libogg-doc'
p8
aS'libogg-locale'
p9
aS'libogg'
p10
asS'pv'
p11
S'1.3.0'
p12
sS'depends'
p13
S'autoconf-native automake-native gnu-config-native libtool-cross libtool-native pkgconfig-native virtual/arm-webos-linux-gnueabi-compilerlibs virtual/arm-webos-linux-gnueabi-gcc virtual/libc'
p14
sS'src_uri'
p15
S'http://downloads.xiph.org/releases/ogg/libogg-1.3.0.tar.gz            file://obsolete_automake_macros.patch           '
p16
sS'pe'
p17
S'0'
p18
sS'bbfile'
p19
S'/OE/webos/wpb/webos-ports/openembedded-core/meta/recipes-multimedia/libogg/libogg_1.3.0.bb'
p20
sS'srcrev'
p21
(lp22
sS'pn'
p23
S'libogg'
p24
s.(dp0
S'pr'
p1
S'r0'
p2
sS'packagelist'
p3
(lp4
S'alsa-server'
p5
aS'libasound'
p6
aS'alsa-conf-base'
p7
aS'alsa-conf'
p8
aS'alsa-doc'
p9
aS'alsa-dev'
p10
aS'alsa-lib-dbg'
p11
aS'alsa-lib-staticdev'
p12
aS'alsa-lib-dev'
p13
aS'alsa-lib-doc'
p14
aS'alsa-lib-locale'
p15
aS'alsa-lib'
p16
asS'pv'
p17
S'1.0.26'
p18
sS'depends'
p19
S'autoconf-native automake-native gnu-config-native libtool-cross libtool-native pkgconfig-native virtual/arm-webos-linux-gnueabi-compilerlibs virtual/arm-webos-linux-gnueabi-gcc virtual/libc'
p20
sS'src_uri'
p21
S'ftp://ftp.alsa-project.org/pub/lib/alsa-lib-1.0.26.tar.bz2            file://fix-tstamp-declaration.patch            file://obsolete_automake_macros.patch                file://0001-ucm-fix-handling-of-config-files-when-file-type-is-n.patch '
p22
sS'pe'
p23
S'0'
p24
sS'bbfile'
p25
S'/OE/webos/wpb/webos-ports/openembedded-core/meta/recipes-multimedia/alsa/alsa-lib_1.0.26.bb'
p26
sS'srcrev'
p27
(lp28
sS'pn'
p29
S'alsa-lib'
p30
s.(dp0
S'pr'
p1
S'r0'
p2
sS'packagelist'
p3
(lp4
S'libsqlite3'
p5
aS'libsqlite3-dev'
p6
aS'libsqlite3-doc'
p7
aS'sqlite3-dbg'
p8
aS'libsqlite3-staticdev'
p9
aS'sqlite3'
p10
asS'pv'
p11
S'3071502'
p12
sS'depends'
p13
S'autoconf-native automake-native gnu-config-native libtool-cross libtool-native ncurses pkgconfig-native readline virtual/arm-webos-linux-gnueabi-compilerlibs virtual/arm-webos-linux-gnueabi-gcc virtual/libc'
p14
sS'src_uri'
p15
S'http://www.sqlite.org/sqlite-autoconf-3071502.tar.gz file://removedoc-webos.patch'
p16
sS'pe'
p17
S'0'
p18
sS'bbfile'
p19
S'/OE/webos/wpb/webos-ports/openembedded-core/meta/recipes-support/sqlite/sqlite3_3071502.bb'
p20
sS'srcrev'
p21
(lp22
sS'pn'
p23
S'sqlite3'
p24
s.