(dp0
S'pr'
p1
S'r6.1'
p2
sS'packagelist'
p3
(lp4
sS'pv'
p5
S'2.4.2'
p6
sS'depends'
p7
S'autoconf-native automake-native gnu-config-native'
p8
sS'src_uri'
p9
S'ftp://ftp.gnu.org/gnu/libtool/libtool-2.4.2.tar.gz            file://trailingslash.patch            file://rename-with-sysroot.patch            file://use-sysroot-in-libpath.patch            file://fix-final-rpath.patch            file://avoid_absolute_paths_for_general_utils.patch            file://fix-rpath.patch \t   file://respect-fstack-protector.patch            file://norm-rpath.patch            file://dont-depend-on-help2man.patch            file://prefix.patch'
p10
sS'pe'
p11
S'0'
p12
sS'bbfile'
p13
S'/OE/webos/owpb/openwebos-ports/openembedded-core/meta/recipes-devtools/libtool/libtool-native_2.4.2.bb'
p14
sS'srcrev'
p15
(lp16
sS'pn'
p17
S'libtool-native'
p18
s.(dp0
S'pr'
p1
S'r0'
p2
sS'packagelist'
p3
(lp4
sS'pv'
p5
S'5.1.2alpha'
p6
sS'depends'
p7
S'autoconf-native automake-native gettext-minimal-native gnu-config-native libtool-native'
p8
sS'src_uri'
p9
S'http://tukaani.org/xz/xz-5.1.2alpha.tar.gz'
p10
sS'pe'
p11
S'0'
p12
sS'bbfile'
p13
S'virtual:native:/OE/webos/owpb/openwebos-ports/openembedded-core/meta/recipes-extended/xz/xz_5.1.2alpha.bb'
p14
sS'srcrev'
p15
(lp16
sS'pn'
p17
S'xz-native'
p18
s.(dp0
S'pr'
p1
S'r0'
p2
sS'packagelist'
p3
(lp4
sS'pv'
p5
S'5.1.1'
p6
sS'depends'
p7
S'autoconf-native automake-native gnu-config-native libtool-native'
p8
sS'src_uri'
p9
S'ftp://ftp.gmplib.org/pub/gmp-5.1.1/gmp-5.1.1.tar.bz2 \t   file://configure.patch \t   file://amd64.patch  file://use-includedir.patch                    '
p10
sS'pe'
p11
S'0'
p12
sS'bbfile'
p13
S'virtual:native:/OE/webos/owpb/openwebos-ports/openembedded-core/meta/recipes-support/gmp/gmp_5.1.1.bb'
p14
sS'srcrev'
p15
(lp16
sS'pn'
p17
S'gmp-native'
p18
s.(dp0
S'pr'
p1
S'r0'
p2
sS'packagelist'
p3
(lp4
sS'pv'
p5
S'0.28'
p6
sS'depends'
p7
S'autoconf-native automake-native gnu-config-native libtool-native'
p8
sS'src_uri'
p9
S'http://pkgconfig.freedesktop.org/releases/pkg-config-0.28.tar.gz              file://glibconfig-sysdefs.h             file://pkg-config-native.in             file://fix-glib-configure-libtool-usage.patch             file://obsolete_automake_macros.patch            '
p10
sS'pe'
p11
S'0'
p12
sS'bbfile'
p13
S'virtual:native:/OE/webos/owpb/openwebos-ports/openembedded-core/meta/recipes-devtools/pkgconfig/pkgconfig_0.28.bb'
p14
sS'srcrev'
p15
(lp16
sS'pn'
p17
S'pkgconfig-native'
p18
s.(dp0
S'pr'
p1
S'r0'
p2
sS'packagelist'
p3
(lp4
sS'pv'
p5
S'1.2.8'
p6
sS'depends'
p7
S''
p8
sS'src_uri'
p9
S'http://www.zlib.net/zlib-1.2.8.tar.xz            file://remove.ldconfig.call.patch            '
p10
sS'pe'
p11
S'0'
p12
sS'bbfile'
p13
S'virtual:native:/OE/webos/owpb/openwebos-ports/openembedded-core/meta/recipes-core/zlib/zlib_1.2.8.bb'
p14
sS'srcrev'
p15
(lp16
sS'pn'
p17
S'zlib-native'
p18
s.(dp0
S'pr'
p1
S'r0'
p2
sS'packagelist'
p3
(lp4
sS'pv'
p5
S'3071700'
p6
sS'depends'
p7
S'autoconf-native automake-native gnu-config-native libtool-native pkgconfig-native'
p8
sS'src_uri'
p9
S'http://www.sqlite.org/2013/sqlite-autoconf-3071700.tar.gz file://removedoc-webos.patch'
p10
sS'pe'
p11
S'0'
p12
sS'bbfile'
p13
S'virtual:native:/OE/webos/owpb/openwebos-ports/openembedded-core/meta/recipes-support/sqlite/sqlite3_3071700.bb'
p14
sS'srcrev'
p15
(lp16
sS'pn'
p17
S'sqlite3-native'
p18
s.(dp0
S'pr'
p1
S'r3'
p2
sS'packagelist'
p3
(lp4
sS'pv'
p5
S'1.5.1'
p6
sS'depends'
p7
S'sqlite3-native'
p8
sS'src_uri'
p9
S'http://www.yoctoproject.org/downloads/pseudo/pseudo-1.5.1.tar.bz2 file://symver.patch'
p10
sS'pe'
p11
S'0'
p12
sS'bbfile'
p13
S'virtual:native:/OE/webos/owpb/openwebos-ports/openembedded-core/meta/recipes-devtools/pseudo/pseudo_1.5.1.bb'
p14
sS'srcrev'
p15
(lp16
sS'pn'
p17
S'pseudo-native'
p18
s.(dp0
S'pr'
p1
S'r0'
p2
sS'packagelist'
p3
(lp4
sS'pv'
p5
S'2.7.1'
p6
sS'depends'
p7
S'autoconf-native automake-native gettext-minimal-native gettext-minimal-native gnu-config-native libtool-native'
p8
sS'src_uri'
p9
S'ftp://ftp.gnu.org/gnu/bison/bison-2.7.1.tar.xz \t        file://m4.patch                 file://dont-depend-on-help2man.patch \t       '
p10
sS'pe'
p11
S'0'
p12
sS'bbfile'
p13
S'virtual:native:/OE/webos/owpb/openwebos-ports/openembedded-core/meta/recipes-devtools/bison/bison_2.7.1.bb'
p14
sS'srcrev'
p15
(lp16
sS'pn'
p17
S'bison-native'
p18
s.(dp0
S'pr'
p1
S'r0'
p2
sS'packagelist'
p3
(lp4
sS'pv'
p5
S'3.1.2'
p6
sS'depends'
p7
S'autoconf-native automake-native gmp-native gnu-config-native libtool-native'
p8
sS'src_uri'
p9
S'http://www.mpfr.org/mpfr-3.1.2/mpfr-3.1.2.tar.xz            file://long-long-thumb.patch            '
p10
sS'pe'
p11
S'0'
p12
sS'bbfile'
p13
S'virtual:native:/OE/webos/owpb/openwebos-ports/openembedded-core/meta/recipes-support/mpfr/mpfr_3.1.2.bb'
p14
sS'srcrev'
p15
(lp16
sS'pn'
p17
S'mpfr-native'
p18
s.(dp0
S'pr'
p1
S'r3'
p2
sS'packagelist'
p3
(lp4
sS'pv'
p5
S'2.5.35'
p6
sS'depends'
p7
S'autoconf-native automake-native gettext-minimal-native gnu-config-native libtool-native'
p8
sS'src_uri'
p9
S'http://downloads.sourceforge.net/flex/flex-2.5.35.tar.bz2  file://avoid-FORTIFY-warnings.patch             file://int-is-not-the-same-size-as-size_t.patch'
p10
sS'pe'
p11
S'0'
p12
sS'bbfile'
p13
S'virtual:native:/OE/webos/owpb/openwebos-ports/openembedded-core/meta/recipes-devtools/flex/flex_2.5.35.bb'
p14
sS'srcrev'
p15
(lp16
sS'pn'
p17
S'flex-native'
p18
s.(dp0
S'pr'
p1
S'r0'
p2
sS'packagelist'
p3
(lp4
sS'pv'
p5
S'3.0.4'
p6
sS'depends'
p7
S'autoconf-native automake-native gnu-config-native libtool-native'
p8
sS'src_uri'
p9
S'ftp://ftp.gnu.org/gnu/gperf/gperf-3.0.4.tar.gz'
p10
sS'pe'
p11
S'0'
p12
sS'bbfile'
p13
S'virtual:native:/OE/webos/owpb/openwebos-ports/openembedded-core/meta/recipes-extended/gperf/gperf_3.0.4.bb'
p14
sS'srcrev'
p15
(lp16
sS'pn'
p17
S'gperf-native'
p18
s.(dp0
S'pr'
p1
S'r15.1'
p2
sS'packagelist'
p3
(lp4
sS'pv'
p5
S'5.9'
p6
sS'depends'
p7
S'autoconf-native automake-native gnu-config-native libtool-native'
p8
sS'src_uri'
p9
S'ftp://ftp.gnu.org/gnu/ncurses/ncurses-5.9.tar.gz file://tic-hang.patch             file://config.cache '
p10
sS'pe'
p11
S'0'
p12
sS'bbfile'
p13
S'virtual:native:/OE/webos/owpb/openwebos-ports/openembedded-core/meta/recipes-core/ncurses/ncurses_5.9.bb'
p14
sS'srcrev'
p15
(lp16
sS'pn'
p17
S'ncurses-native'
p18
s.(dp0
S'pr'
p1
S'r0'
p2
sS'packagelist'
p3
(lp4
sS'pv'
p5
S'1.0.1'
p6
sS'depends'
p7
S'autoconf-native automake-native gmp-native gnu-config-native libtool-native mpfr-native'
p8
sS'src_uri'
p9
S'http://www.multiprecision.org/mpc/download/mpc-1.0.1.tar.gz'
p10
sS'pe'
p11
S'0'
p12
sS'bbfile'
p13
S'virtual:native:/OE/webos/owpb/openwebos-ports/openembedded-core/meta/recipes-support/libmpc/libmpc_1.0.1.bb'
p14
sS'srcrev'
p15
(lp16
sS'pn'
p17
S'libmpc-native'
p18
s.(dp0
S'pr'
p1
S'r4'
p2
sS'packagelist'
p3
(lp4
sS'pv'
p5
S'2.23.2'
p6
sS'depends'
p7
S'bison-native flex-native zlib-native'
p8
sS'src_uri'
p9
S'     ftp://ftp.gnu.org/gnu/binutils/binutils-2.23.2.tar.bz2      file://binutils-uclibc-100-uclibc-conf.patch      file://binutils-uclibc-300-001_ld_makefile_patch.patch      file://binutils-uclibc-300-006_better_file_error.patch      file://binutils-uclibc-300-012_check_ldrunpath_length.patch      file://binutils-uclibc-gas-needs-libm.patch      file://binutils-x86_64_i386_biarch.patch      file://libtool-2.4-update.patch      file://libiberty_path_fix.patch      file://binutils-poison.patch      file://libtool-rpath-fix.patch      file://binutils-armv5e.patch      file://mips64-default-ld-emulation.patch           file://backport/0001-doc-binutils.texi-elfedit-Fix-use-of-itemx-in-table.patch      file://backport/0001-ld.texinfo-Replace-with-when-it-is-part-of-the-text.patch      file://backport/binutils-fix-ineffectual-zero-of-cache.patch      file://backport/binutils-replace-strncat-with-strcat.patch       file://backport/0001-config-tc-ppc.c-md_assemble-Do-not-generate-APUinfo-.patch       file://backport/binutils-fix-skip-whitespace-pr14887.patch      file://backport/aarch64-crn.patch      file://backport/aarch64-movi.patch      file://backport/0001-config-tc-ppc.c-PPC_VLE_SPLIT16A-Delete-unused-macro.patch      file://backport/0002-config-tc-ppc.c-md_apply_fix-Sign-extend-fieldval-un.patch       file://binutils-fix-over-array-bounds-issue.patch      file://binutils-xlp-support.patch      '
p10
sS'pe'
p11
S'0'
p12
sS'bbfile'
p13
S'/OE/webos/owpb/openwebos-ports/openembedded-core/meta/recipes-devtools/binutils/binutils-cross_2.23.2.bb'
p14
sS'srcrev'
p15
(lp16
sS'pn'
p17
S'binutils-cross'
p18
s.(dp0
S'pr'
p1
S'r0'
p2
sS'packagelist'
p3
(lp4
S'linux-libc-headers-dbg'
p5
aS'linux-libc-headers-staticdev'
p6
aS'linux-libc-headers-dev'
p7
aS'linux-libc-headers-doc'
p8
aS'linux-libc-headers-locale'
p9
aS'linux-libc-headers'
p10
asS'pv'
p11
S'3.8'
p12
sS'depends'
p13
S'unifdef-native'
p14
sS'src_uri'
p15
S'http://kernel.org/pub/linux/kernel/v3.0/linux-3.8.tar.bz2 file://scripts-Makefile.headersinst-install-headers-from-sc.patch'
p16
sS'pe'
p17
S'0'
p18
sS'bbfile'
p19
S'/OE/webos/owpb/openwebos-ports/openembedded-core/meta/recipes-kernel/linux-libc-headers/linux-libc-headers_3.8.bb'
p20
sS'srcrev'
p21
(lp22
sS'pn'
p23
S'linux-libc-headers'
p24
s.(dp0
S'pr'
p1
S'r0'
p2
sS'packagelist'
p3
(lp4
sS'pv'
p5
S'3.9.0'
p6
sS'depends'
p7
S'autoconf-native automake-native bison-native flex-native gnu-config-native gperf-native libtool-native ncurses-native pkgconfig-native'
p8
sS'src_uri'
p9
S'http://ymorin.is-a-geek.org/download/kconfig-frontends/kconfig-frontends-3.9.0.0.tar.xz'
p10
sS'pe'
p11
S'0'
p12
sS'bbfile'
p13
S'virtual:native:/OE/webos/owpb/openwebos-ports/openembedded-core/meta/recipes-devtools/kconfig-frontends/kconfig-frontends_3.9.0.bb'
p14
sS'srcrev'
p15
(lp16
sS'pn'
p17
S'kconfig-frontends-native'
p18
s.(dp0
S'pr'
p1
S'r20'
p2
sS'packagelist'
p3
(lp4
sS'pv'
p5
S'4.7.2'
p6
sS'depends'
p7
S'gmp-native libmpc-native mpfr-native virtual/arm-webos-linux-gnueabi-binutils zlib-native'
p8
sS'src_uri'
p9
S'ftp://ftp.gnu.org/gnu/gcc/gcc-4.7.2/gcc-4.7.2.tar.bz2 \t   file://gcc-4.3.1-ARCH_FLAGS_FOR_TARGET.patch \t   file://100-uclibc-conf.patch            file://gcc-uclibc-locale-ctype_touplow_t.patch            file://200-uclibc-locale.patch             file://203-uclibc-locale-no__x.patch;            file://204-uclibc-locale-wchar_fix.patch;            file://205-uclibc-locale-update.patch;            file://301-missing-execinfo_h.patch             file://302-c99-snprintf.patch             file://303-c99-complex-ugly-hack.patch             file://304-index_macro.patch             file://305-libmudflap-susv3-legacy.patch             file://306-libstdc++-namespace.patch             file://740-sh-pr24836.patch             file://800-arm-bigendian.patch             file://gcc-poison-system-directories.patch            file://gcc-poison-dir-extend.patch            file://gcc-4.3.3-SYSROOT_CFLAGS_FOR_TARGET.patch \t   file://64bithack.patch \t   file://optional_libstdc.patch \t   file://disable_relax_pic_calls_flag.patch \t   file://COLLECT_GCC_OPTIONS.patch            file://use-defaults.h-and-t-oe-in-B.patch \t   file://ppc_with_cpu.patch \t   file://ppce5500-e6500-support.patch \t   file://rs6000-tables.patch \t   file://define_insn_reservation.patch \t   file://pr32219.patch \t   file://fortran-cross-compile-hack.patch \t   file://libgcc-sjlj-check.patch \t   file://cpp-honor-sysroot.patch \t   file://mips64-default-n64.patch \t   file://GLIBC_DYNAMIC_LINKER.patch \t   file://arm-hard-float-loader.patch \t   file://gcc-argument-list-too-long.patch \t   file://fix-g++-sysroot.patch \t   file://disablesdt.patch \t   file://libtool.patch \t   file://gcc-armv4-pass-fix-v4bx-to-ld.patch \t   file://ppc_no_crtsavres.patch \t   file://0001-crtstuff.c-USE_PT_GNU_EH_FRAME-Define-for-systems-us.patch \t   file://0001-Makefile.in-vis_hide-gen-hide-list-Do-not-make-defin.patch \t   file://use-ml-conf-files-from-B.patch \t   file://wcast-qual-PR55383.patch \t   file://disable-texinfo-5.patch \t   file://avoid-oob-array-access.patch \t  '
p10
sS'pe'
p11
S'0'
p12
sS'bbfile'
p13
S'/OE/webos/owpb/openwebos-ports/openembedded-core/meta/recipes-devtools/gcc/gcc-cross-initial_4.7.bb'
p14
sS'srcrev'
p15
(lp16
sS'pn'
p17
S'gcc-cross-initial'
p18
s.(dp0
S'pr'
p1
S'r3'
p2
sS'packagelist'
p3
(lp4
sS'pv'
p5
S'2.17'
p6
sS'depends'
p7
S'autoconf-native automake-native gnu-config-native kconfig-frontends-native libtool-native linux-libc-headers virtual/arm-webos-linux-gnueabi-gcc-initial'
p8
sS'src_uri'
p9
S'http://downloads.yoctoproject.org/releases/eglibc/eglibc-2.17-svnr22064.tar.bz2            file://eglibc-svn-arm-lowlevellock-include-tls.patch            file://IO-acquire-lock-fix.patch            file://mips-rld-map-check.patch            file://etc/ld.so.conf            file://generate-supported.mk            file://glibc.fix_sqrt2.patch            file://multilib_readlib.patch            file://ppc-sqrt_finite.patch            file://GLRO_dl_debug_mask.patch            file://initgroups_keys.patch            file://eglibc_fix_findidx_parameters.patch            file://ppc_slow_ieee754_sqrt.patch            file://fileops-without-wchar-io.patch            file://add_resource_h_to_wait_h.patch            file://0001-eglibc-menuconfig-support.patch            file://0002-eglibc-menuconfig-hex-string-options.patch            file://0003-eglibc-menuconfig-build-instructions.patch            file://fsl-ppc-no-fsqrt.patch            file://0001-R_ARM_TLS_DTPOFF32.patch            file://tzselect-sh.patch            file://tzselect-awk.patch            file://0001-eglibc-run-libm-err-tab.pl-with-specific-dirs-in-S.patch            file://fix-tibetian-locales.patch                       file://eglibc-2.17/eglibc-2.17-r22178.patch            file://eglibc-2.17/eglibc-2.17-PR15003-r22243.patch                      '
p10
sS'pe'
p11
S'0'
p12
sS'bbfile'
p13
S'/OE/webos/owpb/openwebos-ports/openembedded-core/meta/recipes-core/eglibc/eglibc-initial_2.17.bb'
p14
sS'srcrev'
p15
(lp16
sS'pn'
p17
S'eglibc-initial'
p18
s.(dp0
S'pr'
p1
S'r3'
p2
sS'packagelist'
p3
(lp4
S'eglibc-dbg'
p5
aS'catchsegv'
p6
aS'sln'
p7
aS'nscd'
p8
aS'ldd'
p9
aS'eglibc-utils'
p10
aS'eglibc-thread-db'
p11
aS'eglibc-pic'
p12
aS'libcidn'
p13
aS'libmemusage'
p14
aS'libsegfault'
p15
aS'eglibc-pcprofile'
p16
aS'libsotruss'
p17
aS'eglibc'
p18
aS'eglibc-extra-nss'
p19
aS'eglibc-dev'
p20
aS'eglibc-staticdev'
p21
aS'eglibc-doc'
p22
asS'pv'
p23
S'2.17'
p24
sS'depends'
p25
S'autoconf-native automake-native gnu-config-native gperf-native kconfig-frontends-native libtool-native linux-libc-headers virtual/arm-webos-linux-gnueabi-gcc-initial virtual/arm-webos-linux-gnueabi-libc-initial'
p26
sS'src_uri'
p27
S'http://downloads.yoctoproject.org/releases/eglibc/eglibc-2.17-svnr22064.tar.bz2            file://eglibc-svn-arm-lowlevellock-include-tls.patch            file://IO-acquire-lock-fix.patch            file://mips-rld-map-check.patch            file://etc/ld.so.conf            file://generate-supported.mk            file://glibc.fix_sqrt2.patch            file://multilib_readlib.patch            file://ppc-sqrt_finite.patch            file://GLRO_dl_debug_mask.patch            file://initgroups_keys.patch            file://eglibc_fix_findidx_parameters.patch            file://ppc_slow_ieee754_sqrt.patch            file://fileops-without-wchar-io.patch            file://add_resource_h_to_wait_h.patch            file://0001-eglibc-menuconfig-support.patch            file://0002-eglibc-menuconfig-hex-string-options.patch            file://0003-eglibc-menuconfig-build-instructions.patch            file://fsl-ppc-no-fsqrt.patch            file://0001-R_ARM_TLS_DTPOFF32.patch            file://tzselect-sh.patch            file://tzselect-awk.patch            file://0001-eglibc-run-libm-err-tab.pl-with-specific-dirs-in-S.patch            file://fix-tibetian-locales.patch                       file://eglibc-2.17/eglibc-2.17-r22178.patch            file://eglibc-2.17/eglibc-2.17-PR15003-r22243.patch                      '
p28
sS'pe'
p29
S'0'
p30
sS'bbfile'
p31
S'/OE/webos/owpb/openwebos-ports/openembedded-core/meta/recipes-core/eglibc/eglibc_2.17.bb'
p32
sS'srcrev'
p33
(lp34
sS'pn'
p35
S'eglibc'
p36
s.(dp0
S'pr'
p1
S'r15.0'
p2
sS'packagelist'
p3
(lp4
sS'pv'
p5
S'1.0.1e'
p6
sS'depends'
p7
S'ocf-linux-native perl-native-runtime-native pkgconfig-native'
p8
sS'src_uri'
p9
S'http://www.openssl.org/source/openssl-1.0.1e.tar.gz            file://configure-targets.patch             file://shared-libs.patch             file://oe-ldflags.patch             file://engines-install-in-libdir-ssl.patch             file://openssl-fix-link.patch             file://debian/version-script.patch             file://debian/pic.patch             file://debian/c_rehash-compat.patch             file://debian/ca.patch             file://debian/make-targets.patch             file://debian/no-rpath.patch             file://debian/man-dir.patch             file://debian/man-section.patch             file://debian/no-symbolic.patch             file://debian/debian-targets.patch             file://openssl_fix_for_x32.patch             file://openssl-fix-doc.patch             file://fix-cipher-des-ede3-cfb1.patch             file://find.pl            '
p10
sS'pe'
p11
S'0'
p12
sS'bbfile'
p13
S'virtual:native:/OE/webos/owpb/openwebos-ports/openembedded-core/meta/recipes-connectivity/openssl/openssl_1.0.1e.bb'
p14
sS'srcrev'
p15
(lp16
sS'pn'
p17
S'openssl-native'
p18
s.(dp0
S'pr'
p1
S'r4'
p2
sS'packagelist'
p3
(lp4
sS'pv'
p5
S'2.4.46'
p6
sS'depends'
p7
S'autoconf-native automake-native gettext-minimal-native gnu-config-native libtool-native ncurses-native'
p8
sS'src_uri'
p9
S'http://download.savannah.gnu.org/releases/attr/attr-2.4.46.src.tar.gz            file://generic-syscalls.patch             file://relative-libdir.patch;striplevel=0            '
p10
sS'pe'
p11
S'0'
p12
sS'bbfile'
p13
S'virtual:native:/OE/webos/owpb/openwebos-ports/openembedded-core/meta/recipes-support/attr/attr_2.4.46.bb'
p14
sS'srcrev'
p15
(lp16
sS'pn'
p17
S'attr-native'
p18
s.(dp0
S'pr'
p1
S'r11'
p2
sS'packagelist'
p3
(lp4
sS'pv'
p5
S'0.148'
p6
sS'depends'
p7
S'autoconf-native automake-native bzip2-native gettext-minimal-native gnu-config-native libtool-native libtool-native virtual/libintl-native zlib-native'
p8
sS'src_uri'
p9
S'https://fedorahosted.org/releases/e/l/elfutils/elfutils-0.148.tar.bz2         file://redhat-portability.diff         file://redhat-robustify.diff         file://hppa_backend.diff         file://arm_backend.diff         file://mips_backend.diff         file://m68k_backend.diff         file://do-autoreconf.diff         file://testsuite-ignore-elflint.diff         file://elf_additions.diff \tfile://elfutils-fsize.patch \tfile://remove-unused.patch \tfile://mempcpy.patch \tfile://fix_for_gcc-4.7.patch \tfile://dso-link-change.patch \tfile://nm-Fix-size-passed-to-snprintf-for-invalid-sh_name-case.patch \tfile://elfutils-ar-c-fix-num-passed-to-memset.patch          file://i386_dis.h         file://x86_64_dis.h '
p10
sS'pe'
p11
S'0'
p12
sS'bbfile'
p13
S'virtual:native:/OE/webos/owpb/openwebos-ports/openembedded-core/meta/recipes-devtools/elfutils/elfutils_0.148.bb'
p14
sS'srcrev'
p15
(lp16
sS'pn'
p17
S'elfutils-native'
p18
s.(dp0
S'pr'
p1
S'r0'
p2
sS'packagelist'
p3
(lp4
sS'pv'
p5
S'5.14'
p6
sS'depends'
p7
S'autoconf-native automake-native gnu-config-native libtool-native zlib-native'
p8
sS'src_uri'
p9
S'ftp://ftp.astron.com/pub/file/file-5.14.tar.gz            file://dump            file://filesystems'
p10
sS'pe'
p11
S'0'
p12
sS'bbfile'
p13
S'virtual:native:/OE/webos/owpb/openwebos-ports/openembedded-core/meta/recipes-devtools/file/file_5.14.bb'
p14
sS'srcrev'
p15
(lp16
sS'pn'
p17
S'file-native'
p18
s.(dp0
S'pr'
p1
S'r4'
p2
sS'packagelist'
p3
(lp4
sS'pv'
p5
S'6.2'
p6
sS'depends'
p7
S'autoconf-native automake-native gnu-config-native libtool-native ncurses-native'
p8
sS'src_uri'
p9
S'ftp://ftp.gnu.org/gnu/readline/readline-6.2.tar.gz;name=archive            file://configure-fix.patch            file://norpath.patch            file://acinclude.m4 ftp://ftp.gnu.org/gnu/readline/readline-6.2-patches/readline62-001;name=patch1;apply=yes;striplevel=0 ftp://ftp.gnu.org/gnu/readline/readline-6.2-patches/readline62-002;name=patch2;apply=yes;striplevel=0 ftp://ftp.gnu.org/gnu/readline/readline-6.2-patches/readline62-003;name=patch3;apply=yes;striplevel=0 ftp://ftp.gnu.org/gnu/readline/readline-6.2-patches/readline62-004;name=patch4;apply=yes;striplevel=0 '
p10
sS'pe'
p11
S'0'
p12
sS'bbfile'
p13
S'virtual:native:/OE/webos/owpb/openwebos-ports/openembedded-core/meta/recipes-core/readline/readline_6.2.bb'
p14
sS'srcrev'
p15
(lp16
sS'pn'
p17
S'readline-native'
p18
s.(dp0
S'pr'
p1
S'r5'
p2
sS'packagelist'
p3
(lp4
sS'pv'
p5
S'1.0.6'
p6
sS'depends'
p7
S'autoconf-native automake-native gnu-config-native libtool-native'
p8
sS'src_uri'
p9
S'http://www.bzip.org/1.0.6/bzip2-1.0.6.tar.gz            file://configure.ac \t   file://Makefile.am'
p10
sS'pe'
p11
S'0'
p12
sS'bbfile'
p13
S'virtual:native:/OE/webos/owpb/openwebos-ports/openembedded-core/meta/recipes-extended/bzip2/bzip2_1.0.6.bb'
p14
sS'srcrev'
p15
(lp16
sS'pn'
p17
S'bzip2-native'
p18
s.(dp0
S'pr'
p1
S'r0.1'
p2
sS'packagelist'
p3
(lp4
sS'pv'
p5
S'2.7.3'
p6
sS'depends'
p7
S'autoconf-native automake-native bzip2-replacement-native gnu-config-native libtool-native openssl-native readline-native sqlite3-native zlib-native'
p8
sS'src_uri'
p9
S'http://www.python.org/ftp/python/2.7.3/Python-2.7.3.tar.bz2            file://05-enable-ctypes-cross-build.patch            file://06-ctypes-libffi-fix-configure.patch            file://10-distutils-fix-swig-parameter.patch            file://11-distutils-never-modify-shebang-line.patch            file://12-distutils-prefix-is-inside-staging-area.patch            file://debug.patch            file://unixccompiler.patch            file://nohostlibs.patch            file://multilib.patch            file://add-md5module-support.patch            file://builddir.patch            '
p10
sS'pe'
p11
S'0'
p12
sS'bbfile'
p13
S'/OE/webos/owpb/openwebos-ports/openembedded-core/meta/recipes-devtools/python/python-native_2.7.3.bb'
p14
sS'srcrev'
p15
(lp16
sS'pn'
p17
S'python-native'
p18
s.(dp0
S'pr'
p1
S'r0'
p2
sS'packagelist'
p3
(lp4
sS'pv'
p5
S'51.2'
p6
sS'depends'
p7
S'autoconf-native automake-native gnu-config-native libtool-native pkgconfig-native'
p8
sS'src_uri'
p9
S'http://download.icu-project.org/files/icu4c/51.2/icu4c-51_2-src.tgz'
p10
sS'pe'
p11
S'0'
p12
sS'bbfile'
p13
S'virtual:native:/OE/webos/owpb/openwebos-ports/openembedded-core/meta/recipes-support/icu/icu_51.2.bb'
p14
sS'srcrev'
p15
(lp16
sS'pn'
p17
S'icu-native'
p18
s.(dp0
S'pr'
p1
S'r0'
p2
sS'packagelist'
p3
(lp4
sS'pv'
p5
S'5.3.21'
p6
sS'depends'
p7
S'autoconf-native automake-native gnu-config-native libtool-native'
p8
sS'src_uri'
p9
S'http://download.oracle.com/berkeley-db/db-5.3.21.tar.gz file://arm-thumb-mutex_db5.patch;patchdir=..'
p10
sS'pe'
p11
S'0'
p12
sS'bbfile'
p13
S'virtual:native:/OE/webos/owpb/openwebos-ports/openembedded-core/meta/recipes-support/db/db_5.3.21.bb'
p14
sS'srcrev'
p15
(lp16
sS'pn'
p17
S'db-native'
p18
s.(dp0
S'pr'
p1
S'r3'
p2
sS'packagelist'
p3
(lp4
sS'pv'
p5
S'4.2.1'
p6
sS'depends'
p7
S'autoconf-native automake-native gnu-config-native icu-native libtool-native'
p8
sS'src_uri'
p9
S'http://downloads.sourceforge.net/beecrypt/beecrypt-4.2.1.tar.gz \t file://disable-icu-check.patch \t file://fix-security.patch          file://fix-for-gcc-4.7.patch'
p10
sS'pe'
p11
S'0'
p12
sS'bbfile'
p13
S'virtual:native:/OE/webos/owpb/openwebos-ports/openembedded-core/meta/recipes-support/beecrypt/beecrypt_4.2.1.bb'
p14
sS'srcrev'
p15
(lp16
sS'pn'
p17
S'beecrypt-native'
p18
s.(dp0
S'pr'
p1
S'r2'
p2
sS'packagelist'
p3
(lp4
sS'pv'
p5
S'1.6.2'
p6
sS'depends'
p7
S'autoconf-native automake-native gnu-config-native libtool-native'
p8
sS'src_uri'
p9
S'ftp://ftp.ossp.org/pkg/lib/uuid/uuid-1.6.2.tar.gz \t   file://0001-Change-library-name.patch \t   file://0002-uuid-preserve-m-option-status-in-v-option-handling.patch \t   file://0003-Fix-whatis-entries.patch \t   file://0004-fix-data-uuid-from-string.patch \t   file://uuid-libtool.patch \t   file://uuid-nostrip.patch            file://install-pc.patch \t  '
p10
sS'pe'
p11
S'0'
p12
sS'bbfile'
p13
S'virtual:native:/OE/webos/owpb/openwebos-ports/openembedded-core/meta/recipes-devtools/ossp-uuid/ossp-uuid_1.6.2.bb'
p14
sS'srcrev'
p15
(lp16
sS'pn'
p17
S'ossp-uuid-native'
p18
s.(dp0
S'pr'
p1
S'r3'
p2
sS'packagelist'
p3
(lp4
sS'pv'
p5
S'1.16'
p6
sS'depends'
p7
S'autoconf-native automake-native gettext-minimal-native gnu-config-native libtool-native'
p8
sS'src_uri'
p9
S'http://rpm5.org/files/popt/popt-1.16.tar.gz            file://pkgconfig_fix.patch            file://popt_fix_for_automake-1.12.patch            file://disable_tests.patch           '
p10
sS'pe'
p11
S'0'
p12
sS'bbfile'
p13
S'virtual:native:/OE/webos/owpb/openwebos-ports/openembedded-core/meta/recipes-support/popt/popt_1.16.bb'
p14
sS'srcrev'
p15
(lp16
sS'pn'
p17
S'popt-native'
p18
s.(dp0
S'pr'
p1
S'r3'
p2
sS'packagelist'
p3
(lp4
sS'pv'
p5
S'2.2.51'
p6
sS'depends'
p7
S'attr-native autoconf-native automake-native gettext-minimal-native gnu-config-native libtool-native'
p8
sS'src_uri'
p9
S'http://download.savannah.gnu.org/releases/acl/acl-2.2.51.src.tar.gz file://relative-libdir.patch;striplevel=0            '
p10
sS'pe'
p11
S'0'
p12
sS'bbfile'
p13
S'virtual:native:/OE/webos/owpb/openwebos-ports/openembedded-core/meta/recipes-support/attr/acl_2.2.51.bb'
p14
sS'srcrev'
p15
(lp16
sS'pn'
p17
S'acl-native'
p18
s.(dp0
S'pr'
p1
S'r0'
p2
sS'packagelist'
p3
(lp4
sS'pv'
p5
S'8.33'
p6
sS'depends'
p7
S'autoconf-native automake-native bzip2-native gnu-config-native libtool-native zlib-native'
p8
sS'src_uri'
p9
S'http://downloads.sourceforge.net/project/pcre/pcre/8.33/pcre-8.33.tar.bz2            file://pcre-cross.patch            file://fix-pcre-name-collision.patch'
p10
sS'pe'
p11
S'0'
p12
sS'bbfile'
p13
S'virtual:native:/OE/webos/owpb/openwebos-ports/openembedded-core/meta/recipes-support/libpcre/libpcre_8.33.bb'
p14
sS'srcrev'
p15
(lp16
sS'pn'
p17
S'libpcre-native'
p18
s.(dp0
S'pr'
p1
S'r4'
p2
sS'packagelist'
p3
(lp4
sS'pv'
p5
S'2.23.2'
p6
sS'depends'
p7
S'autoconf-native automake-native bison-native bison-native flex-native flex-native gettext-minimal-native gnu-config-native libtool-native zlib-native zlib-native'
p8
sS'src_uri'
p9
S'     ftp://ftp.gnu.org/gnu/binutils/binutils-2.23.2.tar.bz2      file://binutils-uclibc-100-uclibc-conf.patch      file://binutils-uclibc-300-001_ld_makefile_patch.patch      file://binutils-uclibc-300-006_better_file_error.patch      file://binutils-uclibc-300-012_check_ldrunpath_length.patch      file://binutils-uclibc-gas-needs-libm.patch      file://binutils-x86_64_i386_biarch.patch      file://libtool-2.4-update.patch      file://libiberty_path_fix.patch      file://binutils-poison.patch      file://libtool-rpath-fix.patch      file://binutils-armv5e.patch      file://mips64-default-ld-emulation.patch           file://backport/0001-doc-binutils.texi-elfedit-Fix-use-of-itemx-in-table.patch      file://backport/0001-ld.texinfo-Replace-with-when-it-is-part-of-the-text.patch      file://backport/binutils-fix-ineffectual-zero-of-cache.patch      file://backport/binutils-replace-strncat-with-strcat.patch       file://backport/0001-config-tc-ppc.c-md_assemble-Do-not-generate-APUinfo-.patch       file://backport/binutils-fix-skip-whitespace-pr14887.patch      file://backport/aarch64-crn.patch      file://backport/aarch64-movi.patch      file://backport/0001-config-tc-ppc.c-PPC_VLE_SPLIT16A-Delete-unused-macro.patch      file://backport/0002-config-tc-ppc.c-md_apply_fix-Sign-extend-fieldval-un.patch       file://binutils-fix-over-array-bounds-issue.patch      file://binutils-xlp-support.patch      '
p10
sS'pe'
p11
S'0'
p12
sS'bbfile'
p13
S'virtual:native:/OE/webos/owpb/openwebos-ports/openembedded-core/meta/recipes-devtools/binutils/binutils_2.23.2.bb'
p14
sS'srcrev'
p15
(lp16
sS'pn'
p17
S'binutils-native'
p18
s.(dp0
S'pr'
p1
S'r63'
p2
sS'packagelist'
p3
(lp4
sS'pv'
p5
S'5.4.9'
p6
sS'depends'
p7
S'acl-native attr-native autoconf-native automake-native beecrypt-native bison-native bzip2-native db-native elfutils-native file-native gettext-minimal-native gnu-config-native libpcre-native libtool-native openssl-native ossp-uuid-native popt-native python-native zlib-native'
p8
sS'src_uri'
p9
S'http://www.rpm5.org/files/rpm/rpm-5.4/rpm-5.4.9-0.20120508.src.rpm;extract=rpm-5.4.9.tar.gz \t   file://rpm-log-auto-rm.patch \t   file://rpm-db-reduce.patch \t   file://perfile_rpmdeps.sh \t   file://rpm-autogen.patch \t   file://rpm-libsql-fix.patch \t   file://header-include-fix.patch \t   file://rpm-platform.patch \t   file://rpm-showrc.patch \t   file://rpm-solvedb.patch \t   file://rpm-tools-mtree-LDFLAGS.patch \t   file://rpm-fileclass.patch \t   file://rpm-canonarch.patch \t   file://rpm-no-loopmsg.patch \t   file://rpm-scriptletexechelper.patch \t   file://pythondeps.sh \t   file://rpmdeps-oecore.patch \t   file://rpm-resolvedep.patch \t   file://rpm-respect-arch.patch \t   file://rpm-no-perl-urpm.patch \t   file://rpm-macros.patch \t   file://rpm-lua.patch \t   file://rpm-ossp-uuid.patch \t   file://rpm-packageorigin.patch \t   file://rpm-pkgconfigdeps.patch \t   file://uclibc-support.patch \t   file://rpmatch.patch \t   file://fstack-protector-configure-check.patch \t   file://dbconvert.patch \t   file://rpm-uuid-include.patch \t   file://makefile-am-exec-hook.patch \t   file://rpm-stub-out-git_strerror.patch \t   file://rpm-db_buffer_small.patch \t   file://rpm-py-init.patch \t   file://python-rpm-rpmsense.patch \t   file://rpm-reloc-macros.patch \t   file://rpm-platform2.patch \t   file://rpm-remove-sykcparse-decl.patch \t   file://debugedit-segv.patch      file://rpm-platform-file-fix.patch \t  '
p10
sS'pe'
p11
S'0'
p12
sS'bbfile'
p13
S'virtual:native:/OE/webos/owpb/openwebos-ports/openembedded-core/meta/recipes-devtools/rpm/rpm_5.4.9.bb'
p14
sS'srcrev'
p15
(lp16
sS'pn'
p17
S'rpm-native'
p18
s.(dp0
S'pr'
p1
S'r0'
p2
sS'packagelist'
p3
(lp4
sS'pv'
p5
S'1.0+gitAUTOINC+4e313edb12'
p6
sS'depends'
p7
S'autoconf-native automake-native binutils-native elfutils-native gnu-config-native libtool-native'
p8
sS'src_uri'
p9
S'git://git.yoctoproject.org/prelink-cross.git;protocol=git            file://prelink.conf            file://prelink.cron.daily            file://prelink.default \t   file://macros.prelink'
p10
sS'pe'
p11
S'0'
p12
sS'bbfile'
p13
S'virtual:native:/OE/webos/owpb/openwebos-ports/openembedded-core/meta/recipes-devtools/prelink/prelink_git.bb'
p14
sS'srcrev'
p15
(lp16
S'4e313edb125db215d4c456ce62c74ee16841a365'
p17
asS'pn'
p18
S'prelink-native'
p19
s.(dp0
S'pr'
p1
S'r1'
p2
sS'packagelist'
p3
(lp4
sS'pv'
p5
S'2.3'
p6
sS'depends'
p7
S'zlib-native'
p8
sS'src_uri'
p9
S'http://zlib.net/pigz/pigz-2.3.tar.gz            file://ldflags.patch'
p10
sS'pe'
p11
S'0'
p12
sS'bbfile'
p13
S'virtual:native:/OE/webos/owpb/openwebos-ports/openembedded-core/meta/recipes-extended/pigz/pigz_2.3.bb'
p14
sS'srcrev'
p15
(lp16
sS'pn'
p17
S'pigz-native'
p18
s.(dp0
S'pr'
p1
S'r5'
p2
sS'packagelist'
p3
(lp4
sS'pv'
p5
S'2.22'
p6
sS'depends'
p7
S'perl-native-runtime'
p8
sS'src_uri'
p9
S'ftp://ftp.debian.org/debian/pool/main/libc/libcap2/libcap2_2.22.orig.tar.gz'
p10
sS'pe'
p11
S'0'
p12
sS'bbfile'
p13
S'virtual:native:/OE/webos/owpb/openwebos-ports/openembedded-core/meta/recipes-support/libcap/libcap_2.22.bb'
p14
sS'srcrev'
p15
(lp16
sS'pn'
p17
S'libcap-native'
p18
s.(dp0
S'pr'
p1
S'r1'
p2
sS'packagelist'
p3
(lp4
sS'pv'
p5
S'2.06'
p6
sS'depends'
p7
S'autoconf-native automake-native gnu-config-native libtool-native'
p8
sS'src_uri'
p9
S'http://www.oberhumer.com/opensource/lzo/download/lzo-2.06.tar.gz            file://acinclude.m4            '
p10
sS'pe'
p11
S'0'
p12
sS'bbfile'
p13
S'virtual:native:/OE/webos/owpb/openwebos-ports/openembedded-core/meta/recipes-support/lzo/lzo_2.06.bb'
p14
sS'srcrev'
p15
(lp16
sS'pn'
p17
S'lzo-native'
p18
s.(dp0
S'pr'
p1
S'r0'
p2
sS'packagelist'
p3
(lp4
sS'pv'
p5
S'2.1.0'
p6
sS'depends'
p7
S'autoconf-native automake-native gnu-config-native gzip-native libtool-native'
p8
sS'src_uri'
p9
S'http://downloads.sourceforge.net/expat/expat-2.1.0.tar.gz            file://autotools.patch'
p10
sS'pe'
p11
S'0'
p12
sS'bbfile'
p13
S'virtual:native:/OE/webos/owpb/openwebos-ports/openembedded-core/meta/recipes-core/expat/expat_2.1.0.bb'
p14
sS'srcrev'
p15
(lp16
sS'pn'
p17
S'expat-native'
p18
s.(dp0
S'pr'
p1
S'r0'
p2
sS'packagelist'
p3
(lp4
sS'pv'
p5
S'1.11'
p6
sS'depends'
p7
S'autoconf-native automake-native gettext-minimal-native gnu-config-native libtool-native pkgconfig-native'
p8
sS'src_uri'
p9
S'ftp://ftp.gnupg.org/gcrypt/libgpg-error/libgpg-error-1.11.tar.bz2            file://pkgconfig.patch'
p10
sS'pe'
p11
S'0'
p12
sS'bbfile'
p13
S'virtual:native:/OE/webos/owpb/openwebos-ports/openembedded-core/meta/recipes-support/libgpg-error/libgpg-error_1.11.bb'
p14
sS'srcrev'
p15
(lp16
sS'pn'
p17
S'libgpg-error-native'
p18
s.(dp0
S'pr'
p1
S'r0'
p2
sS'packagelist'
p3
(lp4
sS'pv'
p5
S'1.5.2'
p6
sS'depends'
p7
S'autoconf-native automake-native gnu-config-native libcap-native libgpg-error-native libtool-native pkgconfig-native'
p8
sS'src_uri'
p9
S'ftp://ftp.gnupg.org/gcrypt/libgcrypt/libgcrypt-1.5.2.tar.gz            file://add-pkgconfig-support.patch'
p10
sS'pe'
p11
S'0'
p12
sS'bbfile'
p13
S'virtual:native:/OE/webos/owpb/openwebos-ports/openembedded-core/meta/recipes-support/libgcrypt/libgcrypt_1.5.2.bb'
p14
sS'srcrev'
p15
(lp16
sS'pn'
p17
S'libgcrypt-native'
p18
s.(dp0
S'pr'
p1
S'r0'
p2
sS'packagelist'
p3
(lp4
sS'pv'
p5
S'3.3'
p6
sS'depends'
p7
S'autoconf-native automake-native gnu-config-native libtool-native'
p8
sS'src_uri'
p9
S'ftp://ftp.gnu.org/gnu/libtasn1/libtasn1-3.3.tar.gz            file://libtasn1_fix_for_automake_1.12.patch            file://dont-depend-on-help2man.patch            '
p10
sS'pe'
p11
S'0'
p12
sS'bbfile'
p13
S'virtual:native:/OE/webos/owpb/openwebos-ports/openembedded-core/meta/recipes-support/gnutls/libtasn1_3.3.bb'
p14
sS'srcrev'
p15
(lp16
sS'pn'
p17
S'libtasn1-native'
p18
s.(dp0
S'pr'
p1
S'r0'
p2
sS'packagelist'
p3
(lp4
sS'pv'
p5
S'2.23.1'
p6
sS'depends'
p7
S'autoconf-native automake-native gettext-minimal-native gnu-config-native libtool-native lzo-native ncurses-native pkgconfig-native zlib-native'
p8
sS'src_uri'
p9
S'http://kernel.org/pub/linux/utils/util-linux/v2.23/util-linux-2.23.1.tar.bz2            file://MCONFIG            file://defines.h            file://make_include            file://swapargs.h             file://util-linux-ng-replace-siginterrupt.patch             file://util-linux-ng-2.16-mount_lock_path.patch             file://uclibc-__progname-conflict.patch             file://configure-sbindir.patch             file://fix-configure.patch             file://util-linux-native.patch '
p10
sS'pe'
p11
S'0'
p12
sS'bbfile'
p13
S'virtual:native:/OE/webos/owpb/openwebos-ports/openembedded-core/meta/recipes-core/util-linux/util-linux_2.23.1.bb'
p14
sS'srcrev'
p15
(lp16
sS'pn'
p17
S'util-linux-native'
p18
s.(dp0
S'pr'
p1
S'r3'
p2
sS'packagelist'
p3
(lp4
sS'pv'
p5
S'1.10'
p6
sS'depends'
p7
S'autoconf-native automake-native gettext-minimal-native gnu-config-native libtool-native'
p8
sS'src_uri'
p9
S'ftp://ftp.gnu.org/gnu/gdbm/gdbm-1.10.tar.gz'
p10
sS'pe'
p11
S'0'
p12
sS'bbfile'
p13
S'virtual:native:/OE/webos/owpb/openwebos-ports/openembedded-core/meta/recipes-support/gdbm/gdbm_1.10.bb'
p14
sS'srcrev'
p15
(lp16
sS'pn'
p17
S'gdbm-native'
p18
s.(dp0
S'pr'
p1
S'r2'
p2
sS'packagelist'
p3
(lp4
sS'pv'
p5
S'1.4.6'
p6
sS'depends'
p7
S'autoconf-native automake-native gnu-config-native libtool-native util-linux-native'
p8
sS'src_uri'
p9
S'http://www.apache.org/dist/apr/apr-1.4.6.tar.bz2            file://configure_fixes.patch            file://cleanup.patch            file://configfix.patch'
p10
sS'pe'
p11
S'0'
p12
sS'bbfile'
p13
S'virtual:native:/OE/webos/owpb/openwebos-ports/openembedded-core/meta/recipes-support/apr/apr_1.4.6.bb'
p14
sS'srcrev'
p15
(lp16
sS'pn'
p17
S'apr-native'
p18
s.(dp0
S'pr'
p1
S'r8.4'
p2
sS'packagelist'
p3
(lp4
sS'pv'
p5
S'2.12.23'
p6
sS'depends'
p7
S'autoconf-native automake-native gettext-minimal-native gnu-config-native libcap-native libgcrypt-native libtasn1-native libtool-native lzo-native pkgconfig-native readline-native zlib-native'
p8
sS'src_uri'
p9
S'ftp://ftp.gnutls.org/gcrypt/gnutls/v2.12/gnutls-2.12.23.tar.bz2 file://gnutls-openssl.patch             file://correct_rpl_gettimeofday_signature.patch             file://configure-fix.patch             file://avoid_AM_PROG_MKDIR_P_warning_error_with_automake_1.12.patch             file://fix-gettext-version.patch            '
p10
sS'pe'
p11
S'0'
p12
sS'bbfile'
p13
S'virtual:native:/OE/webos/owpb/openwebos-ports/openembedded-core/meta/recipes-support/gnutls/gnutls_2.12.23.bb'
p14
sS'srcrev'
p15
(lp16
sS'pn'
p17
S'gnutls-native'
p18
s.(dp0
S'pr'
p1
S'r0'
p2
sS'packagelist'
p3
(lp4
sS'pv'
p5
S'2.9.1'
p6
sS'depends'
p7
S'autoconf-native automake-native gnu-config-native libtool-native pkgconfig-native python-native'
p8
sS'src_uri'
p9
S'ftp://xmlsoft.org/libxml2/libxml2-2.9.1.tar.gz            file://libxml-64bit.patch            file://ansidecl.patch file://libxml2-CVE-2012-2871.patch \t   '
p10
sS'pe'
p11
S'0'
p12
sS'bbfile'
p13
S'virtual:native:/OE/webos/owpb/openwebos-ports/openembedded-core/meta/recipes-core/libxml/libxml2_2.9.1.bb'
p14
sS'srcrev'
p15
(lp16
sS'pn'
p17
S'libxml2-native'
p18
s.(dp0
S'pr'
p1
S'r6.1'
p2
sS'packagelist'
p3
(lp4
sS'pv'
p5
S'2.4.2'
p6
sS'depends'
p7
S'autoconf-native automake-native gnu-config-native libtool-native virtual/arm-webos-linux-gnueabi-compilerlibs virtual/arm-webos-linux-gnueabi-gcc virtual/libc'
p8
sS'src_uri'
p9
S'ftp://ftp.gnu.org/gnu/libtool/libtool-2.4.2.tar.gz            file://trailingslash.patch            file://rename-with-sysroot.patch            file://use-sysroot-in-libpath.patch            file://fix-final-rpath.patch            file://avoid_absolute_paths_for_general_utils.patch            file://fix-rpath.patch \t   file://respect-fstack-protector.patch            file://norm-rpath.patch            file://dont-depend-on-help2man.patch            file://prefix.patch file://fixinstall.patch'
p10
sS'pe'
p11
S'0'
p12
sS'bbfile'
p13
S'/OE/webos/owpb/openwebos-ports/openembedded-core/meta/recipes-devtools/libtool/libtool-cross_2.4.2.bb'
p14
sS'srcrev'
p15
(lp16
sS'pn'
p17
S'libtool-cross'
p18
s.(dp0
S'pr'
p1
S'r0'
p2
sS'packagelist'
p3
(lp4
sS'pv'
p5
S'1.5.1'
p6
sS'depends'
p7
S'apr-native autoconf-native automake-native expat-native gdbm-native gnu-config-native libtool-native'
p8
sS'src_uri'
p9
S'http://www.apache.org/dist/apr/apr-util-1.5.1.tar.gz            file://configfix.patch            file://configure_fixes.patch'
p10
sS'pe'
p11
S'0'
p12
sS'bbfile'
p13
S'virtual:native:/OE/webos/owpb/openwebos-ports/openembedded-core/meta/recipes-support/apr/apr-util_1.5.1.bb'
p14
sS'srcrev'
p15
(lp16
sS'pn'
p17
S'apr-util-native'
p18
s.(dp0
S'pr'
p1
S'r3'
p2
sS'packagelist'
p3
(lp4
sS'pv'
p5
S'0.29.6'
p6
sS'depends'
p7
S'autoconf-native automake-native expat-native gnu-config-native gnutls-native libtool-native libxml2-native pkgconfig-native zlib-native'
p8
sS'src_uri'
p9
S'http://www.webdav.org/neon/neon-0.29.6.tar.gz            file://pkgconfig.patch'
p10
sS'pe'
p11
S'0'
p12
sS'bbfile'
p13
S'virtual:native:/OE/webos/owpb/openwebos-ports/openembedded-core/meta/recipes-support/neon/neon_0.29.6.bb'
p14
sS'srcrev'
p15
(lp16
sS'pn'
p17
S'neon-native'
p18
s.(dp0
S'pr'
p1
S'r0'
p2
sS'packagelist'
p3
(lp4
sS'pv'
p5
S'1.7.10'
p6
sS'depends'
p7
S'apr-util-native autoconf-native automake-native gettext-minimal-native gnu-config-native libtool-native neon-native sqlite3-native'
p8
sS'src_uri'
p9
S'http://www.apache.org/dist/subversion/subversion-1.7.10.tar.bz2            file://libtool2.patch            file://fix-install-depends.patch '
p10
sS'pe'
p11
S'0'
p12
sS'bbfile'
p13
S'virtual:native:/OE/webos/owpb/openwebos-ports/openembedded-core/meta/recipes-devtools/subversion/subversion_1.7.10.bb'
p14
sS'srcrev'
p15
(lp16
sS'pn'
p17
S'subversion-native'
p18
s.(dp0
S'pr'
p1
S'r1'
p2
sS'packagelist'
p3
(lp4
S'opkg-config-base-dbg'
p5
aS'opkg-config-base-staticdev'
p6
aS'opkg-config-base-dev'
p7
aS'opkg-config-base-doc'
p8
aS'opkg-config-base-locale'
p9
aS'opkg-config-base'
p10
asS'pv'
p11
S'1.0'
p12
sS'depends'
p13
S'virtual/arm-webos-linux-gnueabi-compilerlibs virtual/arm-webos-linux-gnueabi-gcc virtual/libc'
p14
sS'src_uri'
p15
S''
p16
sS'pe'
p17
S'0'
p18
sS'bbfile'
p19
S'/OE/webos/owpb/openwebos-ports/openembedded-core/meta/recipes-devtools/opkg/opkg-config-base_1.0.bb'
p20
sS'srcrev'
p21
(lp22
sS'pn'
p23
S'opkg-config-base'
p24
s.(dp0
S'pr'
p1
S'r0'
p2
sS'packagelist'
p3
(lp4
S'gzip-dbg'
p5
aS'gzip-staticdev'
p6
aS'gzip-dev'
p7
aS'gzip-doc'
p8
aS'gzip-locale'
p9
aS'gzip'
p10
asS'pv'
p11
S'1.6'
p12
sS'depends'
p13
S'autoconf-native automake-native gnu-config-native libtool-cross libtool-native virtual/arm-webos-linux-gnueabi-compilerlibs virtual/arm-webos-linux-gnueabi-gcc virtual/libc virtual/update-alternatives'
p14
sS'src_uri'
p15
S'ftp://ftp.gnu.org/gnu/gzip/gzip-1.6.tar.gz file://removedoc-webos.patch'
p16
sS'pe'
p17
S'0'
p18
sS'bbfile'
p19
S'/OE/webos/owpb/openwebos-ports/openembedded-core/meta/recipes-extended/gzip/gzip_1.6.bb'
p20
sS'srcrev'
p21
(lp22
sS'pn'
p23
S'gzip'
p24
s.(dp0
S'pr'
p1
S'r0'
p2
sS'packagelist'
p3
(lp4
S'gzip-dbg'
p5
aS'gzip-staticdev'
p6
aS'gzip-dev'
p7
aS'gzip-doc'
p8
aS'gzip-locale'
p9
aS'gzip'
p10
asS'pv'
p11
S'1.6'
p12
sS'depends'
p13
S'autoconf-native automake-native gnu-config-native libtool-cross libtool-native virtual/arm-webos-linux-gnueabi-compilerlibs virtual/arm-webos-linux-gnueabi-gcc virtual/libc virtual/update-alternatives'
p14
sS'src_uri'
p15
S'ftp://ftp.gnu.org/gnu/gzip/gzip-1.6.tar.gz'
p16
sS'pe'
p17
S'0'
p18
sS'bbfile'
p19
S'/OE/webos/owpb/openwebos-ports/openembedded-core/meta/recipes-extended/gzip/gzip_1.6.bb'
p20
sS'srcrev'
p21
(lp22
sS'pn'
p23
S'gzip'
p24
s.(dp0
S'pr'
p1
S'r13.0'
p2
sS'packagelist'
p3
(lp4
S'libopkg-dev'
p5
aS'libopkg-staticdev'
p6
aS'libopkg'
p7
aS'update-alternatives-cworth'
p8
aS'opkg-dbg'
p9
aS'opkg-staticdev'
p10
aS'opkg-dev'
p11
aS'opkg-doc'
p12
aS'opkg-locale'
p13
aS'opkg'
p14
asS'pv'
p15
S'0.1.8+svnr649'
p16
sS'depends'
p17
S'autoconf-native automake-native gnu-config-native libtool-cross libtool-native pkgconfig-native virtual/arm-webos-linux-gnueabi-compilerlibs virtual/arm-webos-linux-gnueabi-gcc virtual/libc'
p18
sS'src_uri'
p19
S'svn://opkg.googlecode.com/svn;module=trunk;protocol=http            file://obsolete_automake_macros.patch \t   file://0001-Fix-libopkg-header-installation.patch '
p20
sS'pe'
p21
S'1'
p22
sS'bbfile'
p23
S'/OE/webos/owpb/openwebos-ports/openembedded-core/meta/recipes-devtools/opkg/opkg_svn.bb'
p24
sS'srcrev'
p25
(lp26
S'649'
p27
asS'pn'
p28
S'opkg'
p29
s.(dp0
S'pr'
p1
S'r8'
p2
sS'packagelist'
p3
(lp4
S'busybox-httpd'
p5
aS'busybox-udhcpd'
p6
aS'busybox-udhcpc'
p7
aS'busybox-syslog'
p8
aS'busybox-mdev'
p9
aS'busybox-hwclock'
p10
aS'busybox-dbg'
p11
aS'busybox-staticdev'
p12
aS'busybox-dev'
p13
aS'busybox-doc'
p14
aS'busybox-locale'
p15
aS'busybox'
p16
asS'pv'
p17
S'1.20.2'
p18
sS'depends'
p19
S'kern-tools-native update-rc.d-native virtual/arm-webos-linux-gnueabi-compilerlibs virtual/arm-webos-linux-gnueabi-gcc virtual/libc virtual/update-alternatives'
p20
sS'src_uri'
p21
S'http://www.busybox.net/downloads/busybox-1.20.2.tar.bz2;name=tarball            file://B921600.patch            file://get_header_tar.patch            file://busybox-appletlib-dependency.patch            file://run-parts.in.usr-bin.patch            file://watch.in.usr-bin.patch            file://busybox-udhcpc-no_deconfig.patch            file://sys_resource.patch            file://wget_dl_dir_fix.patch            file://find-touchscreen.sh            file://busybox-cron            file://busybox-httpd            file://busybox-udhcpd            file://default.script            file://simple.script            file://hwclock.sh            file://mount.busybox            file://syslog            file://syslog-startup.conf            file://mdev            file://mdev.conf            file://umount.busybox            file://defconfig            file://busybox-mkfs-minix-tests_bigendian.patch            file://fix-for-spurious-testsuite-failure.patch            file://busybox-1.20.2-kernel_ver.patch            file://stat-usr-bin.patch            file://busybox-syslog.service.in            file://busybox-klogd.service.in            file://testsuite-du-du-k-works-fix-false-positive.patch            file://strict-atime.patch            file://fail_on_no_media.patch            file://busybox-sulogin-empty-root-password.patch            file://run-ptest            file://inetd.conf            file://inetd            file://login-utilities.cfg            file://busybox-list-suid-and-non-suid-app-configs.patch file://busybox-syslog.default  file://add_tzset-webos.patch              file://add_option_dash_S-webos.patch              file://add_option_dash_U-webos.patch              file://check_for_null_before_passing_to_fputs-webos.patch              file://defconfig '
p22
sS'pe'
p23
S'0'
p24
sS'bbfile'
p25
S'/OE/webos/owpb/openwebos-ports/openembedded-core/meta/recipes-core/busybox/busybox_1.20.2.bb'
p26
sS'srcrev'
p27
(lp28
sS'pn'
p29
S'busybox'
p30
s.(dp0
S'pr'
p1
S'r12'
p2
sS'packagelist'
p3
(lp4
sS'pv'
p5
S'0.1+gitAUTOINC+fbcdcb8e23'
p6
sS'depends'
p7
S'git-native guilt-native'
p8
sS'src_uri'
p9
S'git://git.yoctoproject.org/yocto-kernel-tools.git;protocol=git'
p10
sS'pe'
p11
S'0'
p12
sS'bbfile'
p13
S'/OE/webos/owpb/openwebos-ports/openembedded-core/meta/recipes-kernel/kern-tools/kern-tools-native_git.bb'
p14
sS'srcrev'
p15
(lp16
S'fbcdcb8e23c38352b46235598f34d7b345f458f1'
p17
asS'pn'
p18
S'kern-tools-native'
p19
s.(dp0
S'pr'
p1
S'r0'
p2
sS'packagelist'
p3
(lp4
S'depmodwrapper-cross-dbg'
p5
aS'depmodwrapper-cross-staticdev'
p6
aS'depmodwrapper-cross-dev'
p7
aS'depmodwrapper-cross-doc'
p8
aS'depmodwrapper-cross-locale'
p9
aS'depmodwrapper-cross'
p10
asS'pv'
p11
S'1.0'
p12
sS'depends'
p13
S''
p14
sS'src_uri'
p15
g14
sS'pe'
p16
S'0'
p17
sS'bbfile'
p18
S'/OE/webos/owpb/openwebos-ports/openembedded-core/meta/recipes-kernel/kmod/depmodwrapper-cross_1.0.bb'
p19
sS'srcrev'
p20
(lp21
sS'pn'
p22
S'depmodwrapper-cross'
p23
s.(dp0
S'pr'
p1
S'r0'
p2
sS'packagelist'
p3
(lp4
S'qemuwrapper-cross-dbg'
p5
aS'qemuwrapper-cross-staticdev'
p6
aS'qemuwrapper-cross-dev'
p7
aS'qemuwrapper-cross-doc'
p8
aS'qemuwrapper-cross-locale'
p9
aS'qemuwrapper-cross'
p10
asS'pv'
p11
S'1.0'
p12
sS'depends'
p13
S''
p14
sS'src_uri'
p15
g14
sS'pe'
p16
S'0'
p17
sS'bbfile'
p18
S'/OE/webos/owpb/openwebos-ports/openembedded-core/meta/recipes-devtools/qemu/qemuwrapper-cross_1.0.bb'
p19
sS'srcrev'
p20
(lp21
sS'pn'
p22
S'qemuwrapper-cross'
p23
s.(dp0
S'pr'
p1
S'r15.1'
p2
sS'packagelist'
p3
(lp4
S'ncurses-dbg'
p5
aS'ncurses-staticdev'
p6
aS'ncurses-dev'
p7
aS'ncurses-doc'
p8
aS'ncurses-locale'
p9
aS'ncurses'
p10
aS'ncurses-tools'
p11
aS'ncurses-terminfo'
p12
aS'ncurses-terminfo-base'
p13
asS'pv'
p14
S'5.9'
p15
sS'depends'
p16
S'autoconf-native automake-native gnu-config-native libtool-cross libtool-native ncurses-native virtual/arm-webos-linux-gnueabi-compilerlibs virtual/arm-webos-linux-gnueabi-gcc virtual/libc virtual/update-alternatives'
p17
sS'src_uri'
p18
S'ftp://ftp.gnu.org/gnu/ncurses/ncurses-5.9.tar.gz file://tic-hang.patch             file://config.cache '
p19
sS'pe'
p20
S'0'
p21
sS'bbfile'
p22
S'/OE/webos/owpb/openwebos-ports/openembedded-core/meta/recipes-core/ncurses/ncurses_5.9.bb'
p23
sS'srcrev'
p24
(lp25
sS'pn'
p26
S'ncurses'
p27
s.(dp0
S'pr'
p1
S'r5'
p2
sS'packagelist'
p3
(lp4
S'update-rc.d-dbg'
p5
aS'update-rc.d-staticdev'
p6
aS'update-rc.d-dev'
p7
aS'update-rc.d-doc'
p8
aS'update-rc.d-locale'
p9
aS'update-rc.d'
p10
asS'pv'
p11
S'0.7'
p12
sS'depends'
p13
S''
p14
sS'src_uri'
p15
S'git://github.com/philb/update-rc.d.git;protocol=git            file://add-verbose.patch            file://check-if-symlinks-are-valid.patch           '
p16
sS'pe'
p17
S'0'
p18
sS'bbfile'
p19
S'/OE/webos/owpb/openwebos-ports/openembedded-core/meta/recipes-core/update-rc.d/update-rc.d_0.7.bb'
p20
sS'srcrev'
p21
(lp22
S'eca680ddf28d024954895f59a241a622dd575c11'
p23
asS'pn'
p24
S'update-rc.d'
p25
s.(dp0
S'pr'
p1
S'r2'
p2
sS'packagelist'
p3
(lp4
S'base-passwd-update'
p5
aS'base-passwd-dbg'
p6
aS'base-passwd-staticdev'
p7
aS'base-passwd-dev'
p8
aS'base-passwd-doc'
p9
aS'base-passwd-locale'
p10
aS'base-passwd'
p11
asS'pv'
p12
S'3.5.26'
p13
sS'depends'
p14
S'autoconf-native automake-native gnu-config-native libtool-cross libtool-native virtual/arm-webos-linux-gnueabi-compilerlibs virtual/arm-webos-linux-gnueabi-gcc virtual/libc'
p15
sS'src_uri'
p16
S'ftp://ftp.debian.org/debian/pool/main/b/base-passwd/base-passwd_3.5.26.tar.gz            file://nobash.patch            file://input.patch'
p17
sS'pe'
p18
S'0'
p19
sS'bbfile'
p20
S'/OE/webos/owpb/openwebos-ports/openembedded-core/meta/recipes-core/base-passwd/base-passwd_3.5.26.bb'
p21
sS'srcrev'
p22
(lp23
sS'pn'
p24
S'base-passwd'
p25
s.(dp0
S'pr'
p1
S'r0'
p2
sS'packagelist'
p3
(lp4
sS'pv'
p5
S'0.0+gitAUTOINC+3dfd0a09de'
p6
sS'depends'
p7
S'autoconf-native automake-native gnu-config-native libtool-native'
p8
sS'src_uri'
p9
S'git://git.gnome.org/gtk-doc-stub;protocol=git'
p10
sS'pe'
p11
S'0'
p12
sS'bbfile'
p13
S'virtual:native:/OE/webos/owpb/openwebos-ports/openembedded-core/meta/recipes-gnome/gtk-doc-stub/gtk-doc-stub_git.bb'
p14
sS'srcrev'
p15
(lp16
S'3dfd0a09de696ec8c544762747f8a0f77153622e'
p17
asS'pn'
p18
S'gtk-doc-stub-native'
p19
s.(dp0
S'pr'
p1
S'r12'
p2
sS'packagelist'
p3
(lp4
S'kernel-headers'
p5
aS'kernel'
p6
aS'kernel-base'
p7
aS'kernel-vmlinux'
p8
aS'kernel-image'
p9
aS'kernel-dev'
p10
aS'kernel-modules'
p11
asS'pv'
p12
S'3.0.31+gitrAUTOINC+a8444fa9d1'
p13
sS'depends'
p14
S'android-image-utils-native chroot-image depmodwrapper-cross kmod-native virtual/arm-webos-linux-gnueabi-binutils virtual/arm-webos-linux-gnueabi-gcc'
p15
sS'src_uri'
p16
S'   git://github.com/shr-distribution/linux.git;protocol=git;branch=tuna/3.0/master   file://defconfig '
p17
sS'pe'
p18
S'3'
p19
sS'bbfile'
p20
S'/OE/webos/owpb/openwebos-ports/meta-smartphone/meta-samsung/recipes-kernel/linux/linux-samsung-tuna_git.bb'
p21
sS'srcrev'
p22
(lp23
S'a8444fa9d19403e5ee88ab6c1a34ce377a2cbc4b'
p24
asS'pn'
p25
S'linux-samsung-tuna'
p26
s.(dp0
S'pr'
p1
S'r4'
p2
sS'packagelist'
p3
(lp4
sS'pv'
p5
S'1.0+gitrAUTOINC+40a6c924a2'
p6
sS'depends'
p7
S'autoconf-native automake-native gnu-config-native libtool-native'
p8
sS'src_uri'
p9
S'  git://git.freesmartphone.org/utilities.git;protocol=git;branch=master '
p10
sS'pe'
p11
S'0'
p12
sS'bbfile'
p13
S'/OE/webos/owpb/openwebos-ports/meta-smartphone/meta-android/recipes-android/image-utils/android-image-utils-native_git.bb'
p14
sS'srcrev'
p15
(lp16
S'40a6c924a2f5031dfabfbf0a70d1e1435c9bc832'
p17
asS'pn'
p18
S'android-image-utils-native'
p19
s.(dp0
S'pr'
p1
S'r0.1'
p2
sS'packagelist'
p3
(lp4
sS'pv'
p5
S'9'
p6
sS'depends'
p7
S'autoconf-native automake-native gnu-config-native gtk-doc-stub-native libtool-native pkgconfig-native'
p8
sS'src_uri'
p9
S'git://git.kernel.org/pub/scm/utils/kernel/kmod/kmod.git            file://depmod-search.conf            file://0001-man-disable-man-page-generation-because-we-don-t-hav.patch            file://fix-undefined-O_CLOEXEC.patch'
p10
sS'pe'
p11
S'0'
p12
sS'bbfile'
p13
S'/OE/webos/owpb/openwebos-ports/openembedded-core/meta/recipes-kernel/kmod/kmod-native_git.bb'
p14
sS'srcrev'
p15
(lp16
S'62081c0f68905b22f375156d4532fd37fa5c8d33'
p17
asS'pn'
p18
S'kmod-native'
p19
s.(dp0
S'pr'
p1
S'r7'
p2
sS'packagelist'
p3
(lp4
sS'pv'
p5
S'1.0.0'
p6
sS'depends'
p7
S''
p8
sS'src_uri'
p9
S'file://makedevs.c            file://COPYING.patch'
p10
sS'pe'
p11
S'0'
p12
sS'bbfile'
p13
S'virtual:native:/OE/webos/owpb/openwebos-ports/openembedded-core/meta/recipes-devtools/makedevs/makedevs_1.0.0.bb'
p14
sS'srcrev'
p15
(lp16
sS'pn'
p17
S'makedevs-native'
p18
s.(dp0
S'pr'
p1
S'r13.0'
p2
sS'packagelist'
p3
(lp4
sS'pv'
p5
S'0.1.8+svnr649'
p6
sS'depends'
p7
S'autoconf-native automake-native gnu-config-native libtool-native pkgconfig-native'
p8
sS'src_uri'
p9
S'svn://opkg.googlecode.com/svn;module=trunk;protocol=http            file://obsolete_automake_macros.patch \t   file://0001-Fix-libopkg-header-installation.patch '
p10
sS'pe'
p11
S'1'
p12
sS'bbfile'
p13
S'virtual:native:/OE/webos/owpb/openwebos-ports/openembedded-core/meta/recipes-devtools/opkg/opkg_svn.bb'
p14
sS'srcrev'
p15
(lp16
S'649'
p17
asS'pn'
p18
S'opkg-native'
p19
s.(dp0
S'pr'
p1
S'r9'
p2
sS'packagelist'
p3
(lp4
S'run-postinsts-dbg'
p5
aS'run-postinsts-staticdev'
p6
aS'run-postinsts-dev'
p7
aS'run-postinsts-doc'
p8
aS'run-postinsts-locale'
p9
aS'run-postinsts'
p10
asS'pv'
p11
S'1.0'
p12
sS'depends'
p13
S'update-rc.d-native virtual/arm-webos-linux-gnueabi-compilerlibs virtual/arm-webos-linux-gnueabi-gcc virtual/libc'
p14
sS'src_uri'
p15
S'file://run-postinsts'
p16
sS'pe'
p17
S'0'
p18
sS'bbfile'
p19
S'/OE/webos/owpb/openwebos-ports/openembedded-core/meta/recipes-devtools/run-postinsts/run-postinsts_1.0.bb'
p20
sS'srcrev'
p21
(lp22
sS'pn'
p23
S'run-postinsts'
p24
s.(dp0
S'pr'
p1
S'r8'
p2
sS'packagelist'
p3
(lp4
S'chroot-script'
p5
asS'pv'
p6
S'1.0'
p7
sS'depends'
p8
S'virtual/arm-webos-linux-gnueabi-compilerlibs virtual/arm-webos-linux-gnueabi-gcc virtual/libc'
p9
sS'src_uri'
p10
S'file://init.sh'
p11
sS'pe'
p12
S'0'
p13
sS'bbfile'
p14
S'/OE/webos/owpb/openwebos-ports/meta-smartphone/meta-android/recipes-bsp/chroot-script/chroot-script_1.0.bb'
p15
sS'srcrev'
p16
(lp17
sS'pn'
p18
g5
s.(dp0
S'pr'
p1
S'r0'
p2
sS'packagelist'
p3
(lp4
sS'pv'
p5
S'0.18.2'
p6
sS'depends'
p7
S'autoconf-native automake-native gettext-minimal-native gnu-config-native libtool-native'
p8
sS'src_uri'
p9
S'ftp://ftp.gnu.org/gnu/gettext/gettext-0.18.2.tar.gz \t   file://parallel.patch           '
p10
sS'pe'
p11
S'0'
p12
sS'bbfile'
p13
S'virtual:native:/OE/webos/owpb/openwebos-ports/openembedded-core/meta/recipes-core/gettext/gettext_0.18.2.bb'
p14
sS'srcrev'
p15
(lp16
sS'pn'
p17
S'gettext-native'
p18
s.(dp0
S'pr'
p1
S'r0'
p2
sS'packagelist'
p3
(lp4
sS'pv'
p5
S'3.0.13'
p6
sS'depends'
p7
S'autoconf-native automake-native gnu-config-native libtool-native'
p8
sS'src_uri'
p9
S'ftp://sourceware.org/pub/libffi/libffi-3.0.13.tar.gz            file://fix-libffi.la-location.patch'
p10
sS'pe'
p11
S'0'
p12
sS'bbfile'
p13
S'virtual:native:/OE/webos/owpb/openwebos-ports/openembedded-core/meta/recipes-gnome/libffi/libffi_3.0.13.bb'
p14
sS'srcrev'
p15
(lp16
sS'pn'
p17
S'libffi-native'
p18
s.(dp0
S'pr'
p1
S'r0'
p2
sS'packagelist'
p3
(lp4
sS'pv'
p5
S'2.36.2'
p6
sS'depends'
p7
S'autoconf-native automake-native gettext-minimal-native gettext-native gnu-config-native gtk-doc-stub-native libffi-native libtool-native pkgconfig-native pkgconfig-native'
p8
sS'src_uri'
p9
S'http://ftp.gnome.org/pub/GNOME/sources/glib/2.36/glib-2.36.2.tar.xz            file://configure-libtool.patch            file://glib-2.0_fix_for_x32.patch            file://fix-conflicting-rand.patch            file://Makefile-ptest.patch            file://run-ptest            file://glib-gettextize-dir.patch'
p10
sS'pe'
p11
S'1'
p12
sS'bbfile'
p13
S'virtual:native:/OE/webos/owpb/openwebos-ports/openembedded-core/meta/recipes-core/glib-2.0/glib-2.0_2.36.2.bb'
p14
sS'srcrev'
p15
(lp16
sS'pn'
p17
S'glib-2.0-native'
p18
s.(dp0
S'pr'
p1
S'r0'
p2
sS'packagelist'
p3
(lp4
S'expat-dbg'
p5
aS'expat-staticdev'
p6
aS'expat-dev'
p7
aS'expat-doc'
p8
aS'expat-locale'
p9
aS'expat-bin'
p10
aS'expat'
p11
asS'pv'
p12
S'2.1.0'
p13
sS'depends'
p14
S'autoconf-native automake-native gnu-config-native gzip-native libtool-cross libtool-native virtual/arm-webos-linux-gnueabi-compilerlibs virtual/arm-webos-linux-gnueabi-gcc virtual/libc'
p15
sS'src_uri'
p16
S'http://downloads.sourceforge.net/expat/expat-2.1.0.tar.gz            file://autotools.patch'
p17
sS'pe'
p18
S'0'
p19
sS'bbfile'
p20
S'/OE/webos/owpb/openwebos-ports/openembedded-core/meta/recipes-core/expat/expat_2.1.0.bb'
p21
sS'srcrev'
p22
(lp23
sS'pn'
p24
S'expat'
p25
s.(dp0
S'pr'
p1
S'r0'
p2
sS'packagelist'
p3
(lp4
S'gettext-runtime'
p5
aS'gettext-runtime-dev'
p6
aS'gettext-runtime-doc'
p7
aS'libgettextlib'
p8
aS'libgettextsrc'
p9
aS'gettext-dbg'
p10
aS'gettext-staticdev'
p11
aS'gettext-dev'
p12
aS'gettext-doc'
p13
aS'gettext-locale'
p14
aS'gettext'
p15
asS'pv'
p16
S'0.18.2'
p17
sS'depends'
p18
S'autoconf-native automake-native expat gettext-native gnu-config-native libtool-cross libtool-native virtual/arm-webos-linux-gnueabi-compilerlibs virtual/arm-webos-linux-gnueabi-gcc virtual/libc virtual/libiconv'
p19
sS'src_uri'
p20
S'ftp://ftp.gnu.org/gnu/gettext/gettext-0.18.2.tar.gz \t   file://parallel.patch           '
p21
sS'pe'
p22
S'0'
p23
sS'bbfile'
p24
S'/OE/webos/owpb/openwebos-ports/openembedded-core/meta/recipes-core/gettext/gettext_0.18.2.bb'
p25
sS'srcrev'
p26
(lp27
sS'pn'
p28
S'gettext'
p29
s.(dp0
S'pr'
p1
S'r0'
p2
sS'packagelist'
p3
(lp4
S'zlib-dbg'
p5
aS'zlib-staticdev'
p6
aS'zlib-dev'
p7
aS'zlib-doc'
p8
aS'zlib-locale'
p9
aS'zlib'
p10
asS'pv'
p11
S'1.2.8'
p12
sS'depends'
p13
S'virtual/arm-webos-linux-gnueabi-compilerlibs virtual/arm-webos-linux-gnueabi-gcc virtual/libc'
p14
sS'src_uri'
p15
S'http://www.zlib.net/zlib-1.2.8.tar.xz            file://remove.ldconfig.call.patch            '
p16
sS'pe'
p17
S'0'
p18
sS'bbfile'
p19
S'/OE/webos/owpb/openwebos-ports/openembedded-core/meta/recipes-core/zlib/zlib_1.2.8.bb'
p20
sS'srcrev'
p21
(lp22
sS'pn'
p23
S'zlib'
p24
s.(dp0
S'pr'
p1
S'r0'
p2
sS'packagelist'
p3
(lp4
S'libffi-dbg'
p5
aS'libffi-staticdev'
p6
aS'libffi-dev'
p7
aS'libffi-doc'
p8
aS'libffi-locale'
p9
aS'libffi'
p10
asS'pv'
p11
S'3.0.13'
p12
sS'depends'
p13
S'autoconf-native automake-native gnu-config-native libtool-cross libtool-native virtual/arm-webos-linux-gnueabi-compilerlibs virtual/arm-webos-linux-gnueabi-gcc virtual/libc'
p14
sS'src_uri'
p15
S'ftp://sourceware.org/pub/libffi/libffi-3.0.13.tar.gz            file://fix-libffi.la-location.patch'
p16
sS'pe'
p17
S'0'
p18
sS'bbfile'
p19
S'/OE/webos/owpb/openwebos-ports/openembedded-core/meta/recipes-gnome/libffi/libffi_3.0.13.bb'
p20
sS'srcrev'
p21
(lp22
sS'pn'
p23
S'libffi'
p24
s.(dp0
S'pr'
p1
S'r0'
p2
sS'packagelist'
p3
(lp4
S'glib-2.0-utils'
p5
aS'glib-2.0-bash-completion'
p6
aS'glib-2.0-codegen'
p7
aS'glib-2.0-dbg'
p8
aS'glib-2.0-staticdev'
p9
aS'glib-2.0-dev'
p10
aS'glib-2.0-doc'
p11
aS'glib-2.0-locale'
p12
aS'glib-2.0'
p13
asS'pv'
p14
S'2.36.2'
p15
sS'depends'
p16
S'autoconf-native automake-native gettext-native glib-2.0-native gnu-config-native gtk-doc-stub-native libffi libtool-cross libtool-native pkgconfig-native virtual/arm-webos-linux-gnueabi-compilerlibs virtual/arm-webos-linux-gnueabi-gcc virtual/gettext virtual/libc virtual/libiconv zlib'
p17
sS'src_uri'
p18
S'http://ftp.gnome.org/pub/GNOME/sources/glib/2.36/glib-2.36.2.tar.xz            file://configure-libtool.patch            file://glib-2.0_fix_for_x32.patch            file://fix-conflicting-rand.patch            file://Makefile-ptest.patch            file://run-ptest           '
p19
sS'pe'
p20
S'1'
p21
sS'bbfile'
p22
S'/OE/webos/owpb/openwebos-ports/openembedded-core/meta/recipes-core/glib-2.0/glib-2.0_2.36.2.bb'
p23
sS'srcrev'
p24
(lp25
sS'pn'
p26
S'glib-2.0'
p27
s.(dp0
S'pr'
p1
S'r0'
p2
sS'packagelist'
p3
(lp4
sS'pv'
p5
S'2.8.7'
p6
sS'depends'
p7
S'autoconf-native automake-native gnu-config-native libtool-native'
p8
sS'src_uri'
p9
S'http://www.cmake.org/files/v2.8/cmake-2.8.7.tar.gz            file://support-oe-qt4-tools-names.patch'
p10
sS'pe'
p11
S'0'
p12
sS'bbfile'
p13
S'/OE/webos/owpb/openwebos-ports/meta-webos-ports/recipes-upstreamable/cmake/cmake-native_2.8.7.bb'
p14
sS'srcrev'
p15
(lp16
sS'pn'
p17
S'cmake-native'
p18
s.(dp0
S'pr'
p1
S'r0'
p2
sS'packagelist'
p3
(lp4
sS'pv'
p5
S'1.0.0~rc4-14'
p6
sS'depends'
p7
S'autoconf-native automake-native cmake-native gnu-config-native libtool-native'
p8
sS'src_uri'
p9
S'git://github.com/openwebos/cmake-modules-webos'
p10
sS'pe'
p11
S'0'
p12
sS'bbfile'
p13
S'/OE/webos/owpb/openwebos-ports/meta-webos-ports/recipes-webos/cmake-modules-webos/cmake-modules-webos-native.bb'
p14
sS'srcrev'
p15
(lp16
S'ba219557afb33d5df0b520e0ac52018dd487d343'
p17
asS'pn'
p18
S'cmake-modules-webos-native'
p19
s.(dp0
S'pr'
p1
S'r0'
p2
sS'packagelist'
p3
(lp4
S'yajl-dbg'
p5
aS'yajl-staticdev'
p6
aS'yajl-dev'
p7
aS'yajl-doc'
p8
aS'yajl-locale'
p9
aS'yajl'
p10
asS'pv'
p11
S'1.0.12'
p12
sS'depends'
p13
S'autoconf-native automake-native cmake-native gnu-config-native libtool-cross libtool-native virtual/arm-webos-linux-gnueabi-compilerlibs virtual/arm-webos-linux-gnueabi-gcc virtual/libc'
p14
sS'src_uri'
p15
S'git://github.com/lloyd/yajl'
p16
sS'pe'
p17
S'0'
p18
sS'bbfile'
p19
S'/OE/webos/owpb/openwebos-ports/meta-webos-ports/recipes-devtools/yajl/yajl_1.0.12.bb'
p20
sS'srcrev'
p21
(lp22
S'17b1790fb9c8abbb3c0f7e083864a6a014191d56'
p23
asS'pn'
p24
S'yajl'
p25
s.(dp0
S'pr'
p1
S'r8'
p2
sS'packagelist'
p3
(lp4
sS'pv'
p5
S'4.1.4.3'
p6
sS'depends'
p7
S'autoconf-native automake-native gettext-minimal-native gnu-config-native libtool-native'
p8
sS'src_uri'
p9
S'http://pkg-shadow.alioth.debian.org/releases/shadow-4.1.4.3.tar.bz2            file://shadow.automake-1.11.patch            file://shadow-4.1.3-dots-in-usernames.patch            file://shadow-4.1.4.2-env-reset-keep-locale.patch            file://add_root_cmd_options.patch            file://disable-syslog.patch            file://useradd.patch            file://shadow_fix_for_automake-1.12.patch            '
p10
sS'pe'
p11
S'0'
p12
sS'bbfile'
p13
S'/OE/webos/owpb/openwebos-ports/openembedded-core/meta/recipes-extended/shadow/shadow-native_4.1.4.3.bb'
p14
sS'srcrev'
p15
(lp16
sS'pn'
p17
S'shadow-native'
p18
s.(dp0
S'pr'
p1
S'r0'
p2
sS'packagelist'
p3
(lp4
S'libpbnjson-dbg'
p5
aS'libpbnjson-staticdev'
p6
aS'libpbnjson-dev'
p7
aS'libpbnjson-doc'
p8
aS'libpbnjson-locale'
p9
aS'libpbnjson'
p10
asS'pv'
p11
S'1.3.0-13'
p12
sS'depends'
p13
S'autoconf-native automake-native cmake-modules-webos-native cmake-native gnu-config-native libtool-cross libtool-native pkgconfig-native virtual/arm-webos-linux-gnueabi-compilerlibs virtual/arm-webos-linux-gnueabi-gcc virtual/libc yajl'
p14
sS'src_uri'
p15
S'git://github.com/openwebos/libpbnjson'
p16
sS'pe'
p17
S'0'
p18
sS'bbfile'
p19
S'/OE/webos/owpb/openwebos-ports/meta-webos-ports/recipes-webos/libpbnjson/libpbnjson.bb'
p20
sS'srcrev'
p21
(lp22
S'42c1559c878d1c4758794c86415739bcf7e4b17e'
p23
asS'pn'
p24
S'libpbnjson'
p25
s.(dp0
S'pr'
p1
S'r0'
p2
sS'packagelist'
p3
(lp4
S'freetype-dbg'
p5
aS'freetype-staticdev'
p6
aS'freetype-dev'
p7
aS'freetype-doc'
p8
aS'freetype-locale'
p9
aS'freetype'
p10
asS'pv'
p11
S'2.4.12'
p12
sS'depends'
p13
S'autoconf-native automake-native gnu-config-native libtool-cross libtool-native pkgconfig-native virtual/arm-webos-linux-gnueabi-compilerlibs virtual/arm-webos-linux-gnueabi-gcc virtual/libc'
p14
sS'src_uri'
p15
S'http://downloads.sourceforge.net/freetype/freetype-2.4.12.tar.bz2 '
p16
sS'pe'
p17
S'0'
p18
sS'bbfile'
p19
S'/OE/webos/owpb/openwebos-ports/openembedded-core/meta/recipes-graphics/freetype/freetype_2.4.12.bb'
p20
sS'srcrev'
p21
(lp22
sS'pn'
p23
S'freetype'
p24
s.(dp0
S'pr'
p1
S'r0'
p2
sS'packagelist'
p3
(lp4
sS'pv'
p5
S'1.22.2'
p6
sS'depends'
p7
S'autoconf-native automake-native gnu-config-native libtool-native'
p8
sS'src_uri'
p9
S'ftp://ftp.gnu.org/gnu/groff/groff-1.22.2.tar.gz'
p10
sS'pe'
p11
S'0'
p12
sS'bbfile'
p13
S'virtual:native:/OE/webos/owpb/openwebos-ports/openembedded-core/meta/recipes-extended/groff/groff_1.22.2.bb'
p14
sS'srcrev'
p15
(lp16
sS'pn'
p17
S'groff-native'
p18
s.(dp0
S'pr'
p1
S'r0'
p2
sS'packagelist'
p3
(lp4
S'pmloglib-dbg'
p5
aS'pmloglib-staticdev'
p6
aS'pmloglib-dev'
p7
aS'pmloglib-doc'
p8
aS'pmloglib-locale'
p9
aS'pmloglib'
p10
asS'pv'
p11
S'3.0.0-30'
p12
sS'depends'
p13
S'autoconf-native automake-native cmake-modules-webos-native cmake-native glib-2.0 gnu-config-native libpbnjson libtool-cross libtool-native pkgconfig-native virtual/arm-webos-linux-gnueabi-compilerlibs virtual/arm-webos-linux-gnueabi-gcc virtual/libc'
p14
sS'src_uri'
p15
S'git://github.com/openwebos/pmloglib'
p16
sS'pe'
p17
S'0'
p18
sS'bbfile'
p19
S'/OE/webos/owpb/openwebos-ports/meta-webos-ports/recipes-webos/pmloglib/pmloglib.bb'
p20
sS'srcrev'
p21
(lp22
S'9ddcaf8601403f9fb048de4db3f7eca3bf506577'
p23
asS'pn'
p24
S'pmloglib'
p25
s.(dp0
S'pr'
p1
S'r13'
p2
sS'packagelist'
p3
(lp4
S'shadow-dbg'
p5
aS'shadow-staticdev'
p6
aS'shadow-dev'
p7
aS'shadow-doc'
p8
aS'shadow-locale'
p9
aS'shadow'
p10
asS'pv'
p11
S'4.1.4.3'
p12
sS'depends'
p13
S'autoconf-native automake-native gettext-native gnu-config-native libtool-cross libtool-native shadow-native virtual/arm-webos-linux-gnueabi-compilerlibs virtual/arm-webos-linux-gnueabi-gcc virtual/gettext virtual/libc virtual/update-alternatives'
p14
sS'src_uri'
p15
S'http://pkg-shadow.alioth.debian.org/releases/shadow-4.1.4.3.tar.bz2            file://login_defs_pam.sed                        file://shadow.automake-1.11.patch            file://shadow-4.1.3-dots-in-usernames.patch            file://shadow-4.1.4.2-env-reset-keep-locale.patch            file://shadow-4.1.4.2-groupmod-pam-check.patch            file://shadow-4.1.4.2-su_no_sanitize_env.patch            file://shadow-update-pam-conf.patch            file://shadow_fix_for_automake-1.12.patch            file://slackware_fix_for_glib-2.17_crypt.patch            '
p16
sS'pe'
p17
S'0'
p18
sS'bbfile'
p19
S'/OE/webos/owpb/openwebos-ports/openembedded-core/meta/recipes-extended/shadow/shadow_4.1.4.3.bb'
p20
sS'srcrev'
p21
(lp22
sS'pn'
p23
S'shadow'
p24
s.(dp0
S'pr'
p1
S'r3'
p2
sS'packagelist'
p3
(lp4
sS'pv'
p5
S'4.1.4.3'
p6
sS'depends'
p7
S'base-passwd virtual/arm-webos-linux-gnueabi-compilerlibs virtual/arm-webos-linux-gnueabi-gcc virtual/libc'
p8
sS'src_uri'
p9
S'file://login.defs_shadow-sysroot'
p10
sS'pe'
p11
S'0'
p12
sS'bbfile'
p13
S'/OE/webos/owpb/openwebos-ports/openembedded-core/meta/recipes-extended/shadow/shadow-sysroot_4.1.4.3.bb'
p14
sS'srcrev'
p15
(lp16
sS'pn'
p17
S'shadow-sysroot'
p18
s.(dp0
S'pr'
p1
S'r0'
p2
sS'packagelist'
p3
(lp4
sS'pv'
p5
S'2.10.07'
p6
sS'depends'
p7
S'autoconf-native automake-native gnu-config-native groff-native libtool-native'
p8
sS'src_uri'
p9
S'http://www.nasm.us/pub/nasm/releasebuilds/2.10.07/nasm-2.10.07.tar.bz2 '
p10
sS'pe'
p11
S'0'
p12
sS'bbfile'
p13
S'virtual:native:/OE/webos/owpb/openwebos-ports/openembedded-core/meta/recipes-devtools/nasm/nasm_2.10.07.bb'
p14
sS'srcrev'
p15
(lp16
sS'pn'
p17
S'nasm-native'
p18
s.(dp0
S'pr'
p1
S'r4'
p2
sS'packagelist'
p3
(lp4
S'readline-dbg'
p5
aS'readline-staticdev'
p6
aS'readline-dev'
p7
aS'readline-doc'
p8
aS'readline-locale'
p9
aS'readline'
p10
asS'pv'
p11
S'6.2'
p12
sS'depends'
p13
S'autoconf-native automake-native gnu-config-native libtool-cross libtool-native ncurses virtual/arm-webos-linux-gnueabi-compilerlibs virtual/arm-webos-linux-gnueabi-gcc virtual/libc'
p14
sS'src_uri'
p15
S'ftp://ftp.gnu.org/gnu/readline/readline-6.2.tar.gz;name=archive            file://configure-fix.patch            file://norpath.patch            file://acinclude.m4 ftp://ftp.gnu.org/gnu/readline/readline-6.2-patches/readline62-001;name=patch1;apply=yes;striplevel=0 ftp://ftp.gnu.org/gnu/readline/readline-6.2-patches/readline62-002;name=patch2;apply=yes;striplevel=0 ftp://ftp.gnu.org/gnu/readline/readline-6.2-patches/readline62-003;name=patch3;apply=yes;striplevel=0 ftp://ftp.gnu.org/gnu/readline/readline-6.2-patches/readline62-004;name=patch4;apply=yes;striplevel=0 '
p16
sS'pe'
p17
S'0'
p18
sS'bbfile'
p19
S'/OE/webos/owpb/openwebos-ports/openembedded-core/meta/recipes-core/readline/readline_6.2.bb'
p20
sS'srcrev'
p21
(lp22
sS'pn'
p23
S'readline'
p24
s.(dp0
S'pr'
p1
S'r0'
p2
sS'packagelist'
p3
(lp4
S'cjson-dbg'
p5
aS'cjson-staticdev'
p6
aS'cjson-dev'
p7
aS'cjson-doc'
p8
aS'cjson-locale'
p9
aS'cjson'
p10
asS'pv'
p11
S'1.8.0-35'
p12
sS'depends'
p13
S'autoconf-native automake-native gnu-config-native libtool-cross libtool-native pkgconfig-native virtual/arm-webos-linux-gnueabi-compilerlibs virtual/arm-webos-linux-gnueabi-gcc virtual/libc'
p14
sS'src_uri'
p15
S'git://github.com/openwebos/cjson'
p16
sS'pe'
p17
S'0'
p18
sS'bbfile'
p19
S'/OE/webos/owpb/openwebos-ports/meta-webos-ports/recipes-webos/cjson/cjson.bb'
p20
sS'srcrev'
p21
(lp22
S'43de024867b8d38f607f04cfede8608ce532a8e6'
p23
asS'pn'
p24
S'cjson'
p25
s.(dp0
S'pr'
p1
S'r1'
p2
sS'packagelist'
p3
(lp4
S'libhybris-dbg'
p5
aS'libhybris-staticdev'
p6
aS'libhybris-dev'
p7
aS'libhybris-doc'
p8
aS'libhybris-locale'
p9
aS'libhybris'
p10
asS'pv'
p11
S'0.1.0+gitrAUTOINC+df8dabcdc0'
p12
sS'depends'
p13
S'autoconf-native automake-native gnu-config-native libtool-cross libtool-native virtual/arm-webos-linux-gnueabi-compilerlibs virtual/arm-webos-linux-gnueabi-gcc virtual/libc'
p14
sS'src_uri'
p15
S'git://github.com/webOS-ports/libhybris.git;branch=webOS-ports/master;protocol=git'
p16
sS'pe'
p17
S'1'
p18
sS'bbfile'
p19
S'/OE/webos/owpb/openwebos-ports/meta-smartphone/meta-android/recipes-core/libhybris/libhybris_git.bb'
p20
sS'srcrev'
p21
(lp22
S'df8dabcdc0c8fed38318bad3fe8fbcd240b6737b'
p23
asS'pn'
p24
S'libhybris'
p25
s.(dp0
S'pr'
p1
S'r6.0'
p2
sS'packagelist'
p3
(lp4
S'dbus-lib'
p5
aS'dbus-dbg'
p6
aS'dbus-staticdev'
p7
aS'dbus-dev'
p8
aS'dbus-doc'
p9
aS'dbus-locale'
p10
aS'dbus'
p11
asS'pv'
p12
S'1.6.8'
p13
sS'depends'
p14
S'autoconf-native automake-native base-passwd expat gettext-native gnu-config-native libtool-cross libtool-native pkgconfig-native shadow shadow-native shadow-sysroot update-rc.d-native virtual/arm-webos-linux-gnueabi-compilerlibs virtual/arm-webos-linux-gnueabi-gcc virtual/gettext virtual/libc virtual/libintl'
p15
sS'src_uri'
p16
S'http://dbus.freedesktop.org/releases/dbus/dbus-1.6.8.tar.gz            file://tmpdir.patch;            file://systemd-address.patch            file://dbus-1.init'
p17
sS'pe'
p18
S'0'
p19
sS'bbfile'
p20
S'/OE/webos/owpb/openwebos-ports/openembedded-core/meta/recipes-core/dbus/dbus_1.6.8.bb'
p21
sS'srcrev'
p22
(lp23
sS'pn'
p24
S'dbus'
p25
s.(dp0
S'pr'
p1
S'r1'
p2
sS'packagelist'
p3
(lp4
S'fontconfig-utils'
p5
aS'fontconfig-dbg'
p6
aS'fontconfig-staticdev'
p7
aS'fontconfig-dev'
p8
aS'fontconfig-doc'
p9
aS'fontconfig-locale'
p10
aS'fontconfig'
p11
asS'pv'
p12
S'2.10.2'
p13
sS'depends'
p14
S'autoconf-native automake-native expat freetype gnu-config-native libtool-cross libtool-native pkgconfig-native virtual/arm-webos-linux-gnueabi-compilerlibs virtual/arm-webos-linux-gnueabi-gcc virtual/libc zlib'
p15
sS'src_uri'
p16
S'http://fontconfig.org/release/fontconfig-2.10.2.tar.gz            file://Add-sysroot-option-to-fc-cache-and-fc-cat.patch           '
p17
sS'pe'
p18
S'0'
p19
sS'bbfile'
p20
S'/OE/webos/owpb/openwebos-ports/openembedded-core/meta/recipes-graphics/fontconfig/fontconfig_2.10.2.bb'
p21
sS'srcrev'
p22
(lp23
sS'pn'
p24
S'fontconfig'
p25
s.(dp0
S'pr'
p1
S'r0'
p2
sS'packagelist'
p3
(lp4
S'libicudata'
p5
aS'libicuuc'
p6
aS'libicui18n'
p7
aS'libicule'
p8
aS'libiculx'
p9
aS'libicutu'
p10
aS'libicuio'
p11
aS'icu-dbg'
p12
aS'icu-staticdev'
p13
aS'icu-dev'
p14
aS'icu-doc'
p15
aS'icu-locale'
p16
aS'icu'
p17
asS'pv'
p18
S'51.2'
p19
sS'depends'
p20
S'autoconf-native automake-native gnu-config-native icu-native libtool-cross libtool-native pkgconfig-native virtual/arm-webos-linux-gnueabi-compilerlibs virtual/arm-webos-linux-gnueabi-gcc virtual/libc'
p21
sS'src_uri'
p22
S'http://download.icu-project.org/files/icu4c/51.2/icu4c-51_2-src.tgz'
p23
sS'pe'
p24
S'0'
p25
sS'bbfile'
p26
S'/OE/webos/owpb/openwebos-ports/openembedded-core/meta/recipes-support/icu/icu_51.2.bb'
p27
sS'srcrev'
p28
(lp29
sS'pn'
p30
S'icu'
p31
s.(dp0
S'pr'
p1
S'r0'
p2
sS'packagelist'
p3
(lp4
S'libpng-dbg'
p5
aS'libpng-staticdev'
p6
aS'libpng-dev'
p7
aS'libpng-doc'
p8
aS'libpng-locale'
p9
aS'libpng'
p10
asS'pv'
p11
S'1.6.2'
p12
sS'depends'
p13
S'autoconf-native automake-native gnu-config-native libtool-cross libtool-native pkgconfig-native virtual/arm-webos-linux-gnueabi-compilerlibs virtual/arm-webos-linux-gnueabi-gcc virtual/libc zlib'
p14
sS'src_uri'
p15
S'http://downloads.sourceforge.net/project/libpng/libpng16/1.6.2/libpng-1.6.2.tar.xz            file://0001-configure-lower-automake-requirement.patch           '
p16
sS'pe'
p17
S'0'
p18
sS'bbfile'
p19
S'/OE/webos/owpb/openwebos-ports/openembedded-core/meta/recipes-multimedia/libpng/libpng_1.6.2.bb'
p20
sS'srcrev'
p21
(lp22
sS'pn'
p23
S'libpng'
p24
s.(dp0
S'pr'
p1
S'r2'
p2
sS'packagelist'
p3
(lp4
S'jpeg-tools'
p5
aS'libturbojpeg'
p6
aS'libjpeg-turbo-dbg'
p7
aS'libjpeg-turbo-staticdev'
p8
aS'libjpeg-turbo-dev'
p9
aS'libjpeg-turbo-doc'
p10
aS'libjpeg-turbo-locale'
p11
aS'libjpeg-turbo'
p12
asS'pv'
p13
S'8d+1.2.1'
p14
sS'depends'
p15
S'autoconf-native automake-native gnu-config-native libtool-cross libtool-native nasm-native pkgconfig-native virtual/arm-webos-linux-gnueabi-compilerlibs virtual/arm-webos-linux-gnueabi-gcc virtual/libc'
p16
sS'src_uri'
p17
S'svn://libjpeg-turbo.svn.sourceforge.net/svnroot/libjpeg-turbo;protocol=https;module=trunk'
p18
sS'pe'
p19
S'0'
p20
sS'bbfile'
p21
S'/OE/webos/owpb/openwebos-ports/meta-openembedded/meta-oe/recipes-core/jpeg/libjpeg-turbo_svn.bb'
p22
sS'srcrev'
p23
(lp24
S'837'
p25
asS'pn'
p26
S'libjpeg-turbo'
p27
s.(dp0
S'pr'
p1
S'r0'
p2
sS'packagelist'
p3
(lp4
S'luna-service2-dbg'
p5
aS'luna-service2-staticdev'
p6
aS'luna-service2-dev'
p7
aS'luna-service2-doc'
p8
aS'luna-service2-locale'
p9
aS'luna-service2'
p10
asS'pv'
p11
S'3.3.0-150'
p12
sS'depends'
p13
S'autoconf-native automake-native cjson cmake-modules-webos-native cmake-native glib-2.0 gnu-config-native libtool-cross libtool-native pkgconfig-native pmloglib virtual/arm-webos-linux-gnueabi-compilerlibs virtual/arm-webos-linux-gnueabi-gcc virtual/libc'
p14
sS'src_uri'
p15
S'git://github.com/openwebos/luna-service2'
p16
sS'pe'
p17
S'0'
p18
sS'bbfile'
p19
S'/OE/webos/owpb/openwebos-ports/meta-webos-ports/recipes-webos/luna-service2/luna-service2.bb'
p20
sS'srcrev'
p21
(lp22
S'dbe4ae6ee6ec907ca7cfbc4966587476cb657baf'
p23
asS'pn'
p24
S'luna-service2'
p25
s.(dp0
S'pr'
p1
S'r3'
p2
sS'packagelist'
p3
(lp4
S'shadow-securetty-dbg'
p5
aS'shadow-securetty-staticdev'
p6
aS'shadow-securetty-dev'
p7
aS'shadow-securetty-doc'
p8
aS'shadow-securetty-locale'
p9
aS'shadow-securetty'
p10
asS'pv'
p11
S'4.1.4.3'
p12
sS'depends'
p13
S''
p14
sS'src_uri'
p15
S'file://securetty'
p16
sS'pe'
p17
S'0'
p18
sS'bbfile'
p19
S'/OE/webos/owpb/openwebos-ports/openembedded-core/meta/recipes-extended/shadow/shadow-securetty_4.1.4.3.bb'
p20
sS'srcrev'
p21
(lp22
sS'pn'
p23
S'shadow-securetty'
p24
s.(dp0
S'pr'
p1
S'r0'
p2
sS'packagelist'
p3
(lp4
sS'pv'
p5
S'4.8.3-4'
p6
sS'depends'
p7
S'glib-2.0-native pkgconfig-native'
p8
sS'src_uri'
p9
S'git://github.com/openwebos/qt            file://0002-webkit2-set-OUTPUT_DIR-value-if-empty.patch '
p10
sS'pe'
p11
S'0'
p12
sS'bbfile'
p13
S'/OE/webos/owpb/openwebos-ports/meta-webos-ports/recipes-webos/qt4/qmake-webos-native.bb'
p14
sS'srcrev'
p15
(lp16
S'7dd334c87bbc78c32176cafafc8d08a830242704'
p17
asS'pn'
p18
S'qmake-webos-native'
p19
s.(dp0
S'pr'
p1
S'r0'
p2
sS'packagelist'
p3
(lp4
S'libsqlite3'
p5
aS'libsqlite3-dev'
p6
aS'libsqlite3-doc'
p7
aS'sqlite3-dbg'
p8
aS'libsqlite3-staticdev'
p9
aS'sqlite3'
p10
asS'pv'
p11
S'3071700'
p12
sS'depends'
p13
S'autoconf-native automake-native gnu-config-native libtool-cross libtool-native ncurses pkgconfig-native readline virtual/arm-webos-linux-gnueabi-compilerlibs virtual/arm-webos-linux-gnueabi-gcc virtual/libc'
p14
sS'src_uri'
p15
S'http://www.sqlite.org/2013/sqlite-autoconf-3071700.tar.gz file://removedoc-webos.patch'
p16
sS'pe'
p17
S'0'
p18
sS'bbfile'
p19
S'/OE/webos/owpb/openwebos-ports/openembedded-core/meta/recipes-support/sqlite/sqlite3_3071700.bb'
p20
sS'srcrev'
p21
(lp22
sS'pn'
p23
S'sqlite3'
p24
s.(dp0
S'pr'
p1
S'r0'
p2
sS'packagelist'
p3
(lp4
S'qt4-webos-dbg'
p5
aS'qt4-webos-staticdev'
p6
aS'qt4-webos-dev'
p7
aS'qt4-webos-doc'
p8
aS'qt4-webos-locale'
p9
aS'qt4-webos'
p10
aS'qt4-webos-buildsrc'
p11
asS'pv'
p12
S'4.8.3-4'
p13
sS'depends'
p14
S'dbus fontconfig freetype glib-2.0 icu jpeg libpng pkgconfig-native virtual/arm-webos-linux-gnueabi-compilerlibs virtual/arm-webos-linux-gnueabi-gcc virtual/egl virtual/libc zlib'
p15
sS'src_uri'
p16
S'git://github.com/openwebos/qt            file://0002-webkit2-set-OUTPUT_DIR-value-if-empty.patch       file://0013-configure-add-crossarch-option.patch     file://keyboard-support-compilation-fix.patch     file://disable-webos-qpa-plugins.patch     file://0001-Extended-QPlatformWindow-class-to-provide-a-method-t.patch '
p17
sS'pe'
p18
S'0'
p19
sS'bbfile'
p20
S'/OE/webos/owpb/openwebos-ports/meta-webos-ports/recipes-webos/qt4/qt4-webos.bb'
p21
sS'srcrev'
p22
(lp23
S'7dd334c87bbc78c32176cafafc8d08a830242704'
p24
asS'pn'
p25
S'qt4-webos'
p26
s.(dp0
S'pr'
p1
S'r0'
p2
sS'packagelist'
p3
(lp4
S'webkit-webos-dbg'
p5
aS'webkit-webos-staticdev'
p6
aS'webkit-webos-dev'
p7
aS'webkit-webos-doc'
p8
aS'webkit-webos-locale'
p9
aS'webkit-webos'
p10
asS'pv'
p11
S'1.3-0.54'
p12
sS'depends'
p13
S'gperf-native luna-service2 pkgconfig-native qmake-webos-native qt4-webos sqlite3 virtual/arm-webos-linux-gnueabi-compilerlibs virtual/arm-webos-linux-gnueabi-gcc virtual/libc'
p14
sS'src_uri'
p15
S'https://github.com/downloads/isis-project/WebKit/WebKit_0.54s.zip   file://0001-Build-fix-with-newer-bison-2.6.patch file://remove-empty-soname-arg.patch file://fullscreenvideowidget-remove-cursor-use.patch'
p16
sS'pe'
p17
S'0'
p18
sS'bbfile'
p19
S'/OE/webos/owpb/openwebos-ports/meta-webos-ports/recipes-webos/webkit/webkit-webos.bb'
p20
sS'srcrev'
p21
(lp22
sS'pn'
p23
S'webkit-webos'
p24
s.(dp0
S'pr'
p1
S'r0'
p2
sS'packagelist'
p3
(lp4
S'libusb-compat-dbg'
p5
aS'libusb-compat-staticdev'
p6
aS'libusb-compat-dev'
p7
aS'libusb-compat-doc'
p8
aS'libusb-compat-locale'
p9
aS'libusb-compat-bin'
p10
aS'libusb-compat'
p11
asS'pv'
p12
S'0.1.5'
p13
sS'depends'
p14
S'autoconf-native automake-native gnu-config-native libtool-cross libtool-native libusb1 pkgconfig-native virtual/arm-webos-linux-gnueabi-compilerlibs virtual/arm-webos-linux-gnueabi-gcc virtual/libc'
p15
sS'src_uri'
p16
S'http://downloads.sourceforge.net/libusb/libusb-compat-0.1.5.tar.bz2'
p17
sS'pe'
p18
S'1'
p19
sS'bbfile'
p20
S'/OE/webos/owpb/openwebos-ports/openembedded-core/meta/recipes-support/libusb/libusb-compat_0.1.5.bb'
p21
sS'srcrev'
p22
(lp23
sS'pn'
p24
S'libusb-compat'
p25
s.(dp0
S'pr'
p1
S'r1'
p2
sS'packagelist'
p3
(lp4
S'libusb1-dbg'
p5
aS'libusb1-staticdev'
p6
aS'libusb1-dev'
p7
aS'libusb1-doc'
p8
aS'libusb1-locale'
p9
aS'libusb1'
p10
asS'pv'
p11
S'1.0.9'
p12
sS'depends'
p13
S'autoconf-native automake-native gnu-config-native libtool-cross libtool-native pkgconfig-native virtual/arm-webos-linux-gnueabi-compilerlibs virtual/arm-webos-linux-gnueabi-gcc virtual/libc'
p14
sS'src_uri'
p15
S'http://downloads.sourceforge.net/libusb/libusb-1.0.9.tar.bz2            file://obsolete_automake_macros.patch           '
p16
sS'pe'
p17
S'0'
p18
sS'bbfile'
p19
S'/OE/webos/owpb/openwebos-ports/openembedded-core/meta/recipes-support/libusb/libusb1_1.0.9.bb'
p20
sS'srcrev'
p21
(lp22
sS'pn'
p23
S'libusb1'
p24
s.(dp0
S'pr'
p1
S'r4'
p2
sS'packagelist'
p3
(lp4
S'libattr'
p5
aS'libattr-dev'
p6
aS'libattr-staticdev'
p7
aS'libattr-doc'
p8
aS'attr-dbg'
p9
aS'attr-staticdev'
p10
aS'attr-dev'
p11
aS'attr-doc'
p12
aS'attr-locale'
p13
aS'attr'
p14
asS'pv'
p15
S'2.4.46'
p16
sS'depends'
p17
S'autoconf-native automake-native gettext-native gnu-config-native libtool-cross libtool-native ncurses virtual/arm-webos-linux-gnueabi-compilerlibs virtual/arm-webos-linux-gnueabi-gcc virtual/gettext virtual/libc'
p18
sS'src_uri'
p19
S'http://download.savannah.gnu.org/releases/attr/attr-2.4.46.src.tar.gz            file://generic-syscalls.patch             file://relative-libdir.patch;striplevel=0            '
p20
sS'pe'
p21
S'0'
p22
sS'bbfile'
p23
S'/OE/webos/owpb/openwebos-ports/openembedded-core/meta/recipes-support/attr/attr_2.4.46.bb'
p24
sS'srcrev'
p25
(lp26
sS'pn'
p27
S'attr'
p28
s.(dp0
S'pr'
p1
S'r0.0'
p2
sS'packagelist'
p3
(lp4
S'libkmod'
p5
aS'kmod-dbg'
p6
aS'kmod-staticdev'
p7
aS'kmod-dev'
p8
aS'kmod-doc'
p9
aS'kmod-locale'
p10
aS'kmod'
p11
asS'pv'
p12
S'9'
p13
sS'depends'
p14
S'autoconf-native automake-native gnu-config-native gtk-doc-stub-native libtool-cross libtool-native pkgconfig-native virtual/arm-webos-linux-gnueabi-compilerlibs virtual/arm-webos-linux-gnueabi-gcc virtual/libc virtual/update-alternatives'
p15
sS'src_uri'
p16
S'git://git.kernel.org/pub/scm/utils/kernel/kmod/kmod.git            file://depmod-search.conf            file://0001-man-disable-man-page-generation-because-we-don-t-hav.patch           '
p17
sS'pe'
p18
S'0'
p19
sS'bbfile'
p20
S'/OE/webos/owpb/openwebos-ports/openembedded-core/meta/recipes-kernel/kmod/kmod_git.bb'
p21
sS'srcrev'
p22
(lp23
S'62081c0f68905b22f375156d4532fd37fa5c8d33'
p24
asS'pn'
p25
S'kmod'
p26
s.(dp0
S'pr'
p1
S'r0'
p2
sS'packagelist'
p3
(lp4
S'util-linux-agetty'
p5
aS'util-linux-fdisk'
p6
aS'util-linux-cfdisk'
p7
aS'util-linux-sfdisk'
p8
aS'util-linux-swaponoff'
p9
aS'util-linux-losetup'
p10
aS'util-linux-umount'
p11
aS'util-linux-mount'
p12
aS'util-linux-readprofile'
p13
aS'util-linux-libblkid'
p14
aS'util-linux-libmount'
p15
aS'util-linux-libmount-dev'
p16
aS'util-linux-libblkid-dev'
p17
aS'util-linux-libuuid'
p18
aS'util-linux-libuuid-dev'
p19
aS'util-linux-uuidgen'
p20
aS'util-linux-lscpu'
p21
aS'util-linux-fsck'
p22
aS'util-linux-blkid'
p23
aS'util-linux-mkfs'
p24
aS'util-linux-mcookie'
p25
aS'util-linux-reset'
p26
aS'util-linux-uuidd'
p27
aS'util-linux-partx'
p28
aS'util-linux-bash-completion'
p29
aS'util-linux-dbg'
p30
aS'util-linux-staticdev'
p31
aS'util-linux-dev'
p32
aS'util-linux-doc'
p33
aS'util-linux-locale'
p34
aS'util-linux'
p35
asS'pv'
p36
S'2.23.1'
p37
sS'depends'
p38
S'autoconf-native automake-native gettext-native gnu-config-native libtool-cross libtool-native ncurses pkgconfig-native virtual/arm-webos-linux-gnueabi-compilerlibs virtual/arm-webos-linux-gnueabi-gcc virtual/gettext virtual/libc virtual/update-alternatives zlib'
p39
sS'src_uri'
p40
S'http://kernel.org/pub/linux/utils/util-linux/v2.23/util-linux-2.23.1.tar.bz2            file://MCONFIG            file://defines.h            file://make_include            file://swapargs.h             file://util-linux-ng-replace-siginterrupt.patch             file://util-linux-ng-2.16-mount_lock_path.patch             file://uclibc-__progname-conflict.patch             file://configure-sbindir.patch             file://fix-configure.patch              '
p41
sS'pe'
p42
S'0'
p43
sS'bbfile'
p44
S'/OE/webos/owpb/openwebos-ports/openembedded-core/meta/recipes-core/util-linux/util-linux_2.23.1.bb'
p45
sS'srcrev'
p46
(lp47
sS'pn'
p48
S'util-linux'
p49
s.(dp0
S'pr'
p1
S'r0'
p2
sS'packagelist'
p3
(lp4
sS'pv'
p5
S'1.1.28'
p6
sS'depends'
p7
S'autoconf-native automake-native gnu-config-native libtool-native libxml2-native pkgconfig-native'
p8
sS'src_uri'
p9
S'ftp://xmlsoft.org/libxslt//libxslt-1.1.28.tar.gz            file://pkgconfig_fix.patch'
p10
sS'pe'
p11
S'0'
p12
sS'bbfile'
p13
S'virtual:native:/OE/webos/owpb/openwebos-ports/openembedded-core/meta/recipes-support/libxslt/libxslt_1.1.28.bb'
p14
sS'srcrev'
p15
(lp16
sS'pn'
p17
S'libxslt-native'
p18
s.(dp0
S'pr'
p1
S'r0'
p2
sS'packagelist'
p3
(lp4
S'pciutils-ids'
p5
aS'libpci'
p6
aS'libpci-dev'
p7
aS'libpci-dbg'
p8
aS'pciutils-dbg'
p9
aS'pciutils-staticdev'
p10
aS'pciutils-dev'
p11
aS'pciutils-doc'
p12
aS'pciutils-locale'
p13
aS'pciutils'
p14
asS'pv'
p15
S'3.2.0'
p16
sS'depends'
p17
S'virtual/arm-webos-linux-gnueabi-compilerlibs virtual/arm-webos-linux-gnueabi-gcc virtual/libc zlib'
p18
sS'src_uri'
p19
S'http://kernel.org/pub/software/utils/pciutils/pciutils-3.2.0.tar.bz2            file://configure.patch            file://pcimodules-pciutils.diff            file://lib-build-fix.patch            file://guess-fix.patch            file://makefile.patch'
p20
sS'pe'
p21
S'0'
p22
sS'bbfile'
p23
S'/OE/webos/owpb/openwebos-ports/openembedded-core/meta/recipes-bsp/pciutils/pciutils_3.2.0.bb'
p24
sS'srcrev'
p25
(lp26
sS'pn'
p27
S'pciutils'
p28
s.(dp0
S'pr'
p1
S'r0'
p2
sS'packagelist'
p3
(lp4
S'usbutils-dbg'
p5
aS'usbutils-staticdev'
p6
aS'usbutils-dev'
p7
aS'usbutils-doc'
p8
aS'usbutils-locale'
p9
aS'usbutils'
p10
aS'usbutils-ids'
p11
asS'pv'
p12
S'006'
p13
sS'depends'
p14
S'autoconf-native automake-native gnu-config-native libtool-cross libtool-native libusb virtual/arm-webos-linux-gnueabi-compilerlibs virtual/arm-webos-linux-gnueabi-gcc virtual/libc zlib'
p15
sS'src_uri'
p16
S'http://kernel.org/pub/linux/utils/usb/usbutils/usbutils-006.tar.gz            file://usb-devices-avoid-dependency-on-bash.patch            file://Fix-NULL-pointer-crash.patch'
p17
sS'pe'
p18
S'0'
p19
sS'bbfile'
p20
S'/OE/webos/owpb/openwebos-ports/openembedded-core/meta/recipes-bsp/usbutils/usbutils_006.bb'
p21
sS'srcrev'
p22
(lp23
sS'pn'
p24
S'usbutils'
p25
s.(dp0
S'pr'
p1
S'r3'
p2
sS'packagelist'
p3
(lp4
S'libacl'
p5
aS'libacl-dev'
p6
aS'libacl-staticdev'
p7
aS'libacl-doc'
p8
aS'acl-dbg'
p9
aS'acl-staticdev'
p10
aS'acl-dev'
p11
aS'acl-doc'
p12
aS'acl-locale'
p13
aS'acl'
p14
asS'pv'
p15
S'2.2.51'
p16
sS'depends'
p17
S'attr autoconf-native automake-native gettext-native gnu-config-native libtool-cross libtool-native virtual/arm-webos-linux-gnueabi-compilerlibs virtual/arm-webos-linux-gnueabi-gcc virtual/gettext virtual/libc'
p18
sS'src_uri'
p19
S'http://download.savannah.gnu.org/releases/acl/acl-2.2.51.src.tar.gz file://relative-libdir.patch;striplevel=0            '
p20
sS'pe'
p21
S'0'
p22
sS'bbfile'
p23
S'/OE/webos/owpb/openwebos-ports/openembedded-core/meta/recipes-support/attr/acl_2.2.51.bb'
p24
sS'srcrev'
p25
(lp26
sS'pn'
p27
S'acl'
p28
s.(dp0
S'pr'
p1
S'r3.0'
p2
sS'packagelist'
p3
(lp4
S'ocf-linux-dbg'
p5
aS'ocf-linux-staticdev'
p6
aS'ocf-linux-dev'
p7
aS'ocf-linux-doc'
p8
aS'ocf-linux-locale'
p9
aS'ocf-linux'
p10
asS'pv'
p11
S'20120127'
p12
sS'depends'
p13
S'virtual/arm-webos-linux-gnueabi-compilerlibs virtual/arm-webos-linux-gnueabi-gcc virtual/libc'
p14
sS'src_uri'
p15
S'http://sourceforge.net/projects/ocf-linux/files/ocf-linux/20120127/ocf-linux-20120127.tar.gz'
p16
sS'pe'
p17
S'0'
p18
sS'bbfile'
p19
S'/OE/webos/owpb/openwebos-ports/openembedded-core/meta/recipes-connectivity/openssl/ocf-linux_20120127.bb'
p20
sS'srcrev'
p21
(lp22
sS'pn'
p23
S'ocf-linux'
p24
s.(dp0
S'pr'
p1
S'r1.0'
p2
sS'packagelist'
p3
(lp4
sS'pv'
p5
S'5.0.2'
p6
sS'depends'
p7
S'dbus-native zlib-native'
p8
sS'src_uri'
p9
S'      http://releases.qt-project.org/qt5/5.0.2/submodules/qtbase-opensource-src-5.0.2.tar.xz       file://0001-Add-linux-oe-g-platform.patch     file://0002-qlibraryinfo-allow-to-set-qt.conf-from-the-outside-u.patch     file://0003-Add-external-hostbindir-option.patch     file://0004-qt_functions-temporary-remove-isEmpty-check.patch     file://0007-configureapp-Prefix-default-LIBDIRS-and-INCDIRS-with.patch     file://0008-qt_module-Fix-pkgconfig-replacement.patch     file://0009-qt_module-Fix-paths-in-.prl-files.patch     file://0010-wayland-scanner-disable-silent-rules.patch     file://0011-configure-don-t-export-SYSTEM_VARIABLES-to-.qmake.va.patch     file://0012-configure.prf-Allow-to-add-extra-arguments-to-make.patch     file://0013-Disable-mkv8snapshot.patch     file://0014-enables-tslib-device-to-be-read-from-env-variable.patch     file://0015-qtbase-allow-build-of-examples.patch  file://0001-Always-build-uic.patch'
p10
sS'pe'
p11
S'0'
p12
sS'bbfile'
p13
S'/OE/webos/owpb/openwebos-ports/meta-qt5/recipes-qt/qt5/qtbase-native_5.0.2.bb'
p14
sS'srcrev'
p15
(lp16
sS'pn'
p17
S'qtbase-native'
p18
s.(dp0
S'pr'
p1
S'r6.0'
p2
sS'packagelist'
p3
(lp4
sS'pv'
p5
S'1.6.8'
p6
sS'depends'
p7
S'autoconf-native automake-native expat-native gettext-minimal-native gnu-config-native libtool-native pkgconfig-native update-rc.d-native virtual/libintl-native'
p8
sS'src_uri'
p9
S'http://dbus.freedesktop.org/releases/dbus/dbus-1.6.8.tar.gz            file://tmpdir.patch;            file://systemd-address.patch            file://dbus-1.init'
p10
sS'pe'
p11
S'0'
p12
sS'bbfile'
p13
S'virtual:native:/OE/webos/owpb/openwebos-ports/openembedded-core/meta/recipes-core/dbus/dbus_1.6.8.bb'
p14
sS'srcrev'
p15
(lp16
sS'pn'
p17
S'dbus-native'
p18
s.(dp0
S'pr'
p1
S'r7'
p2
sS'packagelist'
p3
(lp4
S'libgudev'
p5
aS'libgudev-dev'
p6
aS'libgudev-dbg'
p7
aS'libudev'
p8
aS'libudev-dev'
p9
aS'libudev-dbg'
p10
aS'udev-utils'
p11
aS'udev-cache'
p12
aS'udev-dbg'
p13
aS'udev-staticdev'
p14
aS'udev-dev'
p15
aS'udev-doc'
p16
aS'udev-locale'
p17
aS'udev'
p18
asS'pv'
p19
S'182'
p20
sS'depends'
p21
S'acl autoconf-native automake-native glib-2.0 gnu-config-native gperf-native libtool-cross libtool-native libusb libxslt-native module-init-tools pciutils pkgconfig-native update-rc.d-native usbutils util-linux virtual/arm-webos-linux-gnueabi-compilerlibs virtual/arm-webos-linux-gnueabi-gcc virtual/libc'
p22
sS'src_uri'
p23
S'http://kernel.org/pub/linux/utils/kernel/hotplug/udev-182.tar.gz            file://0001-Fixing-keyboard_force_release.sh-shell-script-path.patch            file://run.rules            file://udev.rules            file://devfs-udev.rules            file://links.conf            file://permissions.rules            file://local.rules            file://udev-cache            file://udev-cache.default            file://init'
p24
sS'pe'
p25
S'0'
p26
sS'bbfile'
p27
S'/OE/webos/owpb/openwebos-ports/openembedded-core/meta/recipes-core/udev/udev_182.bb'
p28
sS'srcrev'
p29
(lp30
sS'pn'
p31
S'udev'
p32
s.(dp0
S'pr'
p1
S'r15.0'
p2
sS'packagelist'
p3
(lp4
S'openssl-engines'
p5
aS'openssl-engines-dbg'
p6
aS'libcrypto'
p7
aS'libssl'
p8
aS'openssl-misc'
p9
aS'openssl-dbg'
p10
aS'openssl-staticdev'
p11
aS'openssl-dev'
p12
aS'openssl-doc'
p13
aS'openssl-locale'
p14
aS'openssl'
p15
asS'pv'
p16
S'1.0.1e'
p17
sS'depends'
p18
S'ocf-linux perl-native-runtime pkgconfig-native virtual/arm-webos-linux-gnueabi-compilerlibs virtual/arm-webos-linux-gnueabi-gcc virtual/libc virtual/update-alternatives'
p19
sS'src_uri'
p20
S'http://www.openssl.org/source/openssl-1.0.1e.tar.gz            file://configure-targets.patch             file://shared-libs.patch             file://oe-ldflags.patch             file://engines-install-in-libdir-ssl.patch             file://openssl-fix-link.patch             file://debian/version-script.patch             file://debian/pic.patch             file://debian/c_rehash-compat.patch             file://debian/ca.patch             file://debian/make-targets.patch             file://debian/no-rpath.patch             file://debian/man-dir.patch             file://debian/man-section.patch             file://debian/no-symbolic.patch             file://debian/debian-targets.patch             file://openssl_fix_for_x32.patch             file://openssl-fix-doc.patch             file://fix-cipher-des-ede3-cfb1.patch             file://find.pl            '
p21
sS'pe'
p22
S'0'
p23
sS'bbfile'
p24
S'/OE/webos/owpb/openwebos-ports/openembedded-core/meta/recipes-connectivity/openssl/openssl_1.0.1e.bb'
p25
sS'srcrev'
p26
(lp27
sS'pn'
p28
S'openssl'
p29
s.(dp0
S'pr'
p1
S'r2.0'
p2
sS'packagelist'
p3
(lp4
S'qtbase-fonts'
p5
aS'qtbase-fonts-ttf-vera'
p6
aS'qtbase-fonts-ttf-dejavu'
p7
aS'qtbase-fonts-pfa'
p8
aS'qtbase-fonts-pfb'
p9
aS'qtbase-fonts-qpf'
p10
aS'qtbase-qmlplugins-dbg'
p11
aS'qtbase-tools-dbg'
p12
aS'qtbase-plugins-dbg'
p13
aS'qtbase-qmlplugins'
p14
aS'qtbase-tools'
p15
aS'qtbase-plugins'
p16
aS'qtbase-mkspecs'
p17
aS'qtbase-examples-dev'
p18
aS'qtbase-examples-staticdev'
p19
aS'qtbase-examples-dbg'
p20
aS'qtbase-examples'
p21
aS'qtbase-dbg'
p22
aS'qtbase-staticdev'
p23
aS'qtbase-dev'
p24
aS'qtbase-doc'
p25
aS'qtbase-locale'
p26
aS'qtbase'
p27
asS'pv'
p28
S'5.0.2'
p29
sS'depends'
p30
S'freetype glib-2.0 icu jpeg libpng openssl qtbase-native qtbase-native udev virtual/arm-webos-linux-gnueabi-compilerlibs virtual/arm-webos-linux-gnueabi-gcc virtual/egl virtual/libc virtual/libgles2 zlib'
p31
sS'src_uri'
p32
S'      http://releases.qt-project.org/qt5/5.0.2/submodules/qtbase-opensource-src-5.0.2.tar.xz       file://0001-Add-linux-oe-g-platform.patch     file://0002-qlibraryinfo-allow-to-set-qt.conf-from-the-outside-u.patch     file://0003-Add-external-hostbindir-option.patch     file://0004-qt_functions-temporary-remove-isEmpty-check.patch     file://0005-qmake-is-already-built-in-qtbase-native.patch     file://0006-Allow-building-a-separate-qmake-for-the-target.patch     file://0007-configureapp-Prefix-default-LIBDIRS-and-INCDIRS-with.patch     file://0008-qt_module-Fix-pkgconfig-replacement.patch     file://0009-qt_module-Fix-paths-in-.prl-files.patch     file://0010-wayland-scanner-disable-silent-rules.patch     file://0011-configure-don-t-export-SYSTEM_VARIABLES-to-.qmake.va.patch     file://0012-configure.prf-Allow-to-add-extra-arguments-to-make.patch     file://0013-Disable-mkv8snapshot.patch     file://0014-enables-tslib-device-to-be-read-from-env-variable.patch     file://0015-qtbase-allow-build-of-examples.patch     file://0018-QOpenGLPaintDevice-sub-area-support.patch     file://0019-Fix-FBO-restoring-in-QOpenGLTextureGlyphCache.patch     file://0020-Use-BGRA-extension-in-bindTexture.patch       file://0016-Allow-tslib-to-be-specified-at-configure-time.patch     file://0017-Rename-qAbs-Function-for-timeval.patch '
p33
sS'pe'
p34
S'0'
p35
sS'bbfile'
p36
S'/OE/webos/owpb/openwebos-ports/meta-qt5/recipes-qt/qt5/qtbase_5.0.2.bb'
p37
sS'srcrev'
p38
(lp39
sS'pn'
p40
S'qtbase'
p41
s.